c__builtin__
set
p0
((lp1
S'/bbs/NTUEE_LAB526/index.html'
p2
aS'/bbs/NCCU01_PF/index.html'
p3
aS'/bbs/GIEE_98/index.html'
p4
aS'/bbs/NCCU10_Arab/index.html'
p5
aS'/bbs/NCCU09_Euro/index.html'
p6
aS'/bbs/PH-101/index.html'
p7
aS'/bbs/NCVL_Mix/index.html'
p8
aS'/bbs/NCCU03_Stat/index.html'
p9
aS'/bbs/FOREST_BIO/index.html'
p10
aS'/bbs/NCCU03_BANK/index.html'
p11
aS'/bbs/CS_SLT2005/index.html'
p12
aS'/bbs/NTUDrama94/index.html'
p13
aS'/bbs/LifeSci_99/index.html'
p14
aS'/bbs/Fishouse86/index.html'
p15
aS'/bbs/NTUIBMB98/index.html'
p16
aS'/bbs/EE_Service/index.html'
p17
aS'/bbs/IB_Soccer/index.html'
p18
aS'/bbs/NCCU08_LawB/index.html'
p19
aS'/bbs/NCCU00_RMI/index.html'
p20
aS'/bbs/NTUCE/index.html'
p21
aS'/bbs/NTUBSEBadMin/index.html'
p22
aS'/bbs/Psychology06/index.html'
p23
aS'/bbs/NCCU11_Ethno/index.html'
p24
aS'/bbs/NCCU11_Arab/index.html'
p25
aS'/bbs/NTUBIME100HW/index.html'
p26
aS'/bbs/NTUCH-88/index.html'
p27
aS'/bbs/NCCU_JP_VB/index.html'
p28
aS'/bbs/NCCU11_AT-A/index.html'
p29
aS'/bbs/NTUBIME101HW/index.html'
p30
aS'/bbs/NCCU_LE-LIB/index.html'
p31
aS'/bbs/NTUEE_NDFSL/index.html'
p32
aS'/bbs/NTUEETST/index.html'
p33
aS'/bbs/NTUFRC-92/index.html'
p34
aS'/bbs/geography103/index.html'
p35
aS'/bbs/NCCU09_BANK/index.html'
p36
aS'/bbs/DC_Reunion/index.html'
p37
aS'/bbs/NTUBA05/index.html'
p38
aS'/bbs/NTUIE98/index.html'
p39
aS'/bbs/NCCU04_BA/index.html'
p40
aS'/bbs/Hightech/index.html'
p41
aS'/bbs/NTUHistory84/index.html'
p42
aS'/bbs/LifeSci_92/index.html'
p43
aS'/bbs/NCCULabor95/index.html'
p44
aS'/bbs/NTUmed91/index.html'
p45
aS'/bbs/C-M_IN_NCCU/index.html'
p46
aS'/bbs/NTUBA-847011/index.html'
p47
aS'/bbs/NTUmed88/index.html'
p48
aS'/bbs/NTUCHEBG/index.html'
p49
aS'/bbs/NTUJapan11/index.html'
p50
aS'/bbs/Chinan_BM/index.html'
p51
aS'/bbs/NTU-OMIH99/index.html'
p52
aS'/bbs/NCCU08_LING/index.html'
p53
aS'/bbs/B91310XXX/index.html'
p54
aS'/bbs/SocialBcup/index.html'
p55
aS'/bbs/NTUMCSA/index.html'
p56
aS'/bbs/NCCU03FMGRAD/index.html'
p57
aS'/bbs/NTUEE_Lab207/index.html'
p58
aS'/bbs/NTUMSE-98/index.html'
p59
aS'/bbs/NTUPPM-97/index.html'
p60
aS'/bbs/NTU-IEH95/index.html'
p61
aS'/bbs/NCCUEcoBaseB/index.html'
p62
aS'/bbs/B96303XXX/index.html'
p63
aS'/bbs/NCCU_print/index.html'
p64
aS'/bbs/Anthro05/index.html'
p65
aS'/bbs/NCCU09_MBA/index.html'
p66
aS'/bbs/NCCU05_PF/index.html'
p67
aS'/bbs/NCCUFutClub/index.html'
p68
aS'/bbs/LAND_BASKET/index.html'
p69
aS'/bbs/Structure93/index.html'
p70
aS'/bbs/NCCU07_LawC/index.html'
p71
aS'/bbs/Journalism99/index.html'
p72
aS'/bbs/CLHsinChao/index.html'
p73
aS'/bbs/NTUfinGrad98/index.html'
p74
aS'/bbs/NCCU03_PF/index.html'
p75
aS'/bbs/NTUND95/index.html'
p76
aS'/bbs/AGECR90/index.html'
p77
aS'/bbs/VET_92/index.html'
p78
aS'/bbs/NTUJapan03/index.html'
p79
aS'/bbs/NCCU_SP/index.html'
p80
aS'/bbs/NCCU_ZLSH/index.html'
p81
aS'/bbs/NTUCE-103/index.html'
p82
aS'/bbs/NCCULawClub/index.html'
p83
aS'/bbs/B863013XX/index.html'
p84
aS'/bbs/NTULibrary/index.html'
p85
aS'/bbs/FinSoccer/index.html'
p86
aS'/bbs/NCCU_SCA/index.html'
p87
aS'/bbs/b97902HW/index.html'
p88
aS'/bbs/NCCU04_MJOUR/index.html'
p89
aS'/bbs/Transport100/index.html'
p90
aS'/bbs/NCCULabor98/index.html'
p91
aS'/bbs/NCCU06_STGAR/index.html'
p92
aS'/bbs/Epi-95/index.html'
p93
aS'/bbs/NCCU07_LawB/index.html'
p94
aS'/bbs/NCCU10_SOCIO/index.html'
p95
aS'/bbs/NTUFRC86/index.html'
p96
aS'/bbs/NTUdent88/index.html'
p97
aS'/bbs/NTUDrama93/index.html'
p98
aS'/bbs/NTUBIME-91/index.html'
p99
aS'/bbs/NCCU_Perform/index.html'
p100
aS'/bbs/NTUDormG1/index.html'
p101
aS'/bbs/NTUCSA_CUL/index.html'
p102
aS'/bbs/CIVIL-Team/index.html'
p103
aS'/bbs/Agronomy-86/index.html'
p104
aS'/bbs/BOTANY_93/index.html'
p105
aS'/bbs/NCCU07_MAT/index.html'
p106
aS'/bbs/NTUphy01/index.html'
p107
aS'/bbs/NCCU06_BA/index.html'
p108
aS'/bbs/B021010XX/index.html'
p109
aS'/bbs/Journalism97/index.html'
p110
aS'/bbs/NCCU03_PS/index.html'
p111
aS'/bbs/NTUot100/index.html'
p112
aS'/bbs/CSIE_GBasket/index.html'
p113
aS'/bbs/NTU-GIIB2006/index.html'
p114
aS'/bbs/ntuACCT98/index.html'
p115
aS'/bbs/Sci_Service/index.html'
p116
aS'/bbs/NTUMSA/index.html'
p117
aS'/bbs/ntuACCT93/index.html'
p118
aS'/bbs/NCCU99_JAPAN/index.html'
p119
aS'/bbs/NCCU_BOMAB/index.html'
p120
aS'/bbs/R973300XX/index.html'
p121
aS'/bbs/Agronomy-93/index.html'
p122
aS'/bbs/Philo-96/index.html'
p123
aS'/bbs/NTUMEB89-A/index.html'
p124
aS'/bbs/b874060XX/index.html'
p125
aS'/bbs/NCCU03_Histo/index.html'
p126
aS'/bbs/NCCU01_PSYCH/index.html'
p127
aS'/bbs/NTU-TechComm/index.html'
p128
aS'/bbs/NCCU_Kyudo/index.html'
p129
aS'/bbs/NTUDormInt/index.html'
p130
aS'/bbs/NTUEOE-IOL/index.html'
p131
aS'/bbs/NTU-HCOA91/index.html'
p132
aS'/bbs/LAND_SUCKER/index.html'
p133
aS'/bbs/PT-98/index.html'
p134
aS'/bbs/MSEbasketbal/index.html'
p135
aS'/bbs/R993300XX/index.html'
p136
aS'/bbs/NTUDrama00/index.html'
p137
aS'/bbs/NTUEE115HW/index.html'
p138
aS'/bbs/NTUMEB88-A/index.html'
p139
aS'/bbs/B87303XXX/index.html'
p140
aS'/bbs/NTU09DFLL/index.html'
p141
aS'/bbs/NCCU00_LawHa/index.html'
p142
aS'/bbs/NTUmed01/index.html'
p143
aS'/bbs/NTUot96/index.html'
p144
aS'/bbs/NCCU08_RMI/index.html'
p145
aS'/bbs/MED-DORM/index.html'
p146
aS'/bbs/NTUACCTR100/index.html'
p147
aS'/bbs/Agronomy-88/index.html'
p148
aS'/bbs/PSY_FCVB/index.html'
p149
aS'/bbs/Philo-13/index.html'
p150
aS'/bbs/NTUBSE-B-91/index.html'
p151
aS'/bbs/LAND_Gbasket/index.html'
p152
aS'/bbs/NCCU08_TWHis/index.html'
p153
aS'/bbs/NTUdent99/index.html'
p154
aS'/bbs/NCCU11_TUR/index.html'
p155
aS'/bbs/NCCUSA/index.html'
p156
aS'/bbs/NCCU_Phi_VB/index.html'
p157
aS'/bbs/NTULawR93/index.html'
p158
aS'/bbs/NCCU99_PF/index.html'
p159
aS'/bbs/B903023XX/index.html'
p160
aS'/bbs/NTUCHE-R98/index.html'
p161
aS'/bbs/NCCU_Karate/index.html'
p162
aS'/bbs/NTUF-00/index.html'
p163
aS'/bbs/NCCUcommerce/index.html'
p164
aS'/bbs/NTUHISVOLLEY/index.html'
p165
aS'/bbs/NCCU96_BA/index.html'
p166
aS'/bbs/NCCU11_MAT/index.html'
p167
aS'/bbs/NTUEE_POWER/index.html'
p168
aS'/bbs/LS_Tennis/index.html'
p169
aS'/bbs/NCCU10_CHI/index.html'
p170
aS'/bbs/AGEC89/index.html'
p171
aS'/bbs/PHI_pingpong/index.html'
p172
aS'/bbs/NTUIAM-97/index.html'
p173
aS'/bbs/NTUG-TOXIC/index.html'
p174
aS'/bbs/NCCU08_JAPAN/index.html'
p175
aS'/bbs/letter_Intro/index.html'
p176
aS'/bbs/PH-sports/index.html'
p177
aS'/bbs/B873012XX/index.html'
p178
aS'/bbs/NCCU04_FM/index.html'
p179
aS'/bbs/NCCU_TWHis/index.html'
p180
aS'/bbs/Psychology00/index.html'
p181
aS'/bbs/NTUMT-01/index.html'
p182
aS'/bbs/math_badmint/index.html'
p183
aS'/bbs/NtuDormF8/index.html'
p184
aS'/bbs/NTUacadem/index.html'
p185
aS'/bbs/NCCU99_DIP/index.html'
p186
aS'/bbs/NCCU08_EcoG/index.html'
p187
aS'/bbs/B003022XX/index.html'
p188
aS'/bbs/B93A013XX/index.html'
p189
aS'/bbs/NCCU08_PFGR/index.html'
p190
aS'/bbs/B91303XXX/index.html'
p191
aS'/bbs/BIME-SOCCER/index.html'
p192
aS'/bbs/civil94/index.html'
p193
aS'/bbs/NCCU_CH/index.html'
p194
aS'/bbs/EE_Comment/index.html'
p195
aS'/bbs/NTUMEB93-B/index.html'
p196
aS'/bbs/NTUBSEpinpon/index.html'
p197
aS'/bbs/Poli-Study/index.html'
p198
aS'/bbs/B933021XX/index.html'
p199
aS'/bbs/NTUphy96/index.html'
p200
aS'/bbs/NCCU07PAGARD/index.html'
p201
aS'/bbs/NCCU02_ETHNO/index.html'
p202
aS'/bbs/NCCU_NICEBOY/index.html'
p203
aS'/bbs/NTUCE-101/index.html'
p204
aS'/bbs/PH-study/index.html'
p205
aS'/bbs/NTUBST98/index.html'
p206
aS'/bbs/NTUBST94/index.html'
p207
aS'/bbs/NTUCivilGSA/index.html'
p208
aS'/bbs/NCCUSUNCLUB/index.html'
p209
aS'/bbs/NCCU01_LawHa/index.html'
p210
aS'/bbs/NTU_GoodLife/index.html'
p211
aS'/bbs/NTUIM-19/index.html'
p212
aS'/bbs/NCCU07_PA/index.html'
p213
aS'/bbs/JP_Sports/index.html'
p214
aS'/bbs/NCCU01_CHI/index.html'
p215
aS'/bbs/R973220PT/index.html'
p216
aS'/bbs/B881010XX/index.html'
p217
aS'/bbs/NTUND_Basket/index.html'
p218
aS'/bbs/NTUMEB86-B/index.html'
p219
aS'/bbs/B893022xx/index.html'
p220
aS'/bbs/NCCU_ECONO/index.html'
p221
aS'/bbs/CSIE_BASKET/index.html'
p222
aS'/bbs/NCCU10_PA/index.html'
p223
aS'/bbs/NTUMSE-91/index.html'
p224
aS'/bbs/NCCU04_PS/index.html'
p225
aS'/bbs/AGECR93/index.html'
p226
aS'/bbs/b892040XX/index.html'
p227
aS'/bbs/NtuDormF6/index.html'
p228
aS'/bbs/NTUBP-R100/index.html'
p229
aS'/bbs/NTUMEB97/index.html'
p230
aS'/bbs/NTUF95-HW/index.html'
p231
aS'/bbs/NCCU97_LawFl/index.html'
p232
aS'/bbs/NCCU04_MAT/index.html'
p233
aS'/bbs/B92A013XX/index.html'
p234
aS'/bbs/NCCU08_MAD/index.html'
p235
aS'/bbs/NTUIB97/index.html'
p236
aS'/bbs/NTUIE97/index.html'
p237
aS'/bbs/NTUEE112/index.html'
p238
aS'/bbs/ntuACCT91/index.html'
p239
aS'/bbs/NTUBST/index.html'
p240
aS'/bbs/NCCU12_PFGR/index.html'
p241
aS'/bbs/geography90/index.html'
p242
aS'/bbs/NCCU10_BA/index.html'
p243
aS'/bbs/INSECT-96/index.html'
p244
aS'/bbs/NCCU04_RMI/index.html'
p245
aS'/bbs/NTU-HCOA93/index.html'
p246
aS'/bbs/Phy-volley/index.html'
p247
aS'/bbs/NCCU_RATC/index.html'
p248
aS'/bbs/NTUIM-09/index.html'
p249
aS'/bbs/geography92/index.html'
p250
aS'/bbs/NCCU00_RU-C/index.html'
p251
aS'/bbs/NCCU_Shogi/index.html'
p252
aS'/bbs/NTUAC100/index.html'
p253
aS'/bbs/PH-94/index.html'
p254
aS'/bbs/bioinfo_lab/index.html'
p255
aS'/bbs/PF_Ping_Pong/index.html'
p256
aS'/bbs/ENG_BASKET/index.html'
p257
aS'/bbs/NCCU03_DIP/index.html'
p258
aS'/bbs/NTUMEB99/index.html'
p259
aS'/bbs/AGEC99/index.html'
p260
aS'/bbs/Philo-BMT/index.html'
p261
aS'/bbs/INSECT-91/index.html'
p262
aS'/bbs/B89205XXX/index.html'
p263
aS'/bbs/B99305XXX/index.html'
p264
aS'/bbs/NTUEE_BL504/index.html'
p265
aS'/bbs/NTUBP-R90/index.html'
p266
aS'/bbs/NCCU02_Histo/index.html'
p267
aS'/bbs/NTUGEOLOGY/index.html'
p268
aS'/bbs/NTUFIN-91/index.html'
p269
aS'/bbs/NCCU03_RMI/index.html'
p270
aS'/bbs/NCCU07_DIP/index.html'
p271
aS'/bbs/NTUot95/index.html'
p272
aS'/bbs/NTUot87/index.html'
p273
aS'/bbs/AnthroSA/index.html'
p274
aS'/bbs/MSEsoftball/index.html'
p275
aS'/bbs/NCCU09_GID/index.html'
p276
aS'/bbs/NCCU06FMGRAD/index.html'
p277
aS'/bbs/NCCU_SC/index.html'
p278
aS'/bbs/NCCU08_Eng/index.html'
p279
aS'/bbs/NTUPSE-94/index.html'
p280
aS'/bbs/NCCU09_Ethno/index.html'
p281
aS'/bbs/NCCU09_SOCI/index.html'
p282
aS'/bbs/NTUFBASKETBL/index.html'
p283
aS'/bbs/GIEE_BASKET/index.html'
p284
aS'/bbs/NCCU05_Eng/index.html'
p285
aS'/bbs/AGEC95/index.html'
p286
aS'/bbs/B973021XX/index.html'
p287
aS'/bbs/MGT_Service/index.html'
p288
aS'/bbs/NCCU11_RMI/index.html'
p289
aS'/bbs/NCCU06_SOCI/index.html'
p290
aS'/bbs/NCCU10_PHILO/index.html'
p291
aS'/bbs/Philo-04/index.html'
p292
aS'/bbs/NTUDFLL-VBT/index.html'
p293
aS'/bbs/NTUPSE-96/index.html'
p294
aS'/bbs/B993022XX/index.html'
p295
aS'/bbs/NTUBSE-B-100/index.html'
p296
aS'/bbs/CS_IGO/index.html'
p297
aS'/bbs/NCCULabor99/index.html'
p298
aS'/bbs/RMI_Soccer/index.html'
p299
aS'/bbs/B99A013XX/index.html'
p300
aS'/bbs/BioChem_92/index.html'
p301
aS'/bbs/NAOE-87/index.html'
p302
aS'/bbs/NTUBA95/index.html'
p303
aS'/bbs/PT-91/index.html'
p304
aS'/bbs/NCCU03_PSYCH/index.html'
p305
aS'/bbs/C_Tzuchi/index.html'
p306
aS'/bbs/EthnosSoccer/index.html'
p307
aS'/bbs/NTUMSE92PASS/index.html'
p308
aS'/bbs/Anthrodunker/index.html'
p309
aS'/bbs/NCCU00_JAPAN/index.html'
p310
aS'/bbs/EconStudy/index.html'
p311
aS'/bbs/b012040XX/index.html'
p312
aS'/bbs/NTUFRC-90/index.html'
p313
aS'/bbs/CS_Volley/index.html'
p314
aS'/bbs/INSECT-SA/index.html'
p315
aS'/bbs/NTUMSE-99/index.html'
p316
aS'/bbs/civil96/index.html'
p317
aS'/bbs/NCCU_ChenPei/index.html'
p318
aS'/bbs/NTUAC94/index.html'
p319
aS'/bbs/NCCU03_SOCI/index.html'
p320
aS'/bbs/AGEC96/index.html'
p321
aS'/bbs/NCCU06_GRMI/index.html'
p322
aS'/bbs/DoubleMajor/index.html'
p323
aS'/bbs/NTUmed89work/index.html'
p324
aS'/bbs/NCCU_SRS/index.html'
p325
aS'/bbs/NTUAC84/index.html'
p326
aS'/bbs/EthnosVolley/index.html'
p327
aS'/bbs/NTUAC88/index.html'
p328
aS'/bbs/NTUCHE-R97/index.html'
p329
aS'/bbs/NCCU10_Math/index.html'
p330
aS'/bbs/NTUJSA/index.html'
p331
aS'/bbs/NCCU_CCUDP/index.html'
p332
aS'/bbs/NCCU09_LING/index.html'
p333
aS'/bbs/NCCUEco_SC/index.html'
p334
aS'/bbs/NCCU99_Arab/index.html'
p335
aS'/bbs/NCCU_ATHL/index.html'
p336
aS'/bbs/NCCU01_LawFl/index.html'
p337
aS'/bbs/NTUACCTR98/index.html'
p338
aS'/bbs/NTUCHEsoccer/index.html'
p339
aS'/bbs/Soci_Basket/index.html'
p340
aS'/bbs/B94A012XX/index.html'
p341
aS'/bbs/ESOE-98/index.html'
p342
aS'/bbs/NCCUPHY98/index.html'
p343
aS'/bbs/NTUCHE-98-HW/index.html'
p344
aS'/bbs/NTUHistory88/index.html'
p345
aS'/bbs/NCCU06PAGRAD/index.html'
p346
aS'/bbs/NCCU_TYSH/index.html'
p347
aS'/bbs/NCCU_TM/index.html'
p348
aS'/bbs/SPARKSHOW/index.html'
p349
aS'/bbs/NTUphy99/index.html'
p350
aS'/bbs/civil86/index.html'
p351
aS'/bbs/BioChemPhD97/index.html'
p352
aS'/bbs/b882040XX/index.html'
p353
aS'/bbs/dorm/index.html'
p354
aS'/bbs/NTUCH-104/index.html'
p355
aS'/bbs/ESOE-93/index.html'
p356
aS'/bbs/NTUBA97/index.html'
p357
aS'/bbs/NTUBSEvolley/index.html'
p358
aS'/bbs/NTUSJ/index.html'
p359
aS'/bbs/NCCU06_PA/index.html'
p360
aS'/bbs/NCCU08_PSYCH/index.html'
p361
aS'/bbs/handfoot/index.html'
p362
aS'/bbs/Anthro97/index.html'
p363
aS'/bbs/BioChem_93/index.html'
p364
aS'/bbs/PT-90/index.html'
p365
aS'/bbs/NAOE-86/index.html'
p366
aS'/bbs/NCCU_SHUAI/index.html'
p367
aS'/bbs/nccu_piano/index.html'
p368
aS'/bbs/NCCU11_PSYCH/index.html'
p369
aS'/bbs/B903021XX/index.html'
p370
aS'/bbs/NTUdent02/index.html'
p371
aS'/bbs/NTUdent96/index.html'
p372
aS'/bbs/R89325xxx/index.html'
p373
aS'/bbs/NTUot/index.html'
p374
aS'/bbs/IAM_BioChip/index.html'
p375
aS'/bbs/NCCU00_LawFl/index.html'
p376
aS'/bbs/NTUFT-Bridge/index.html'
p377
aS'/bbs/NCCU01_RU/index.html'
p378
aS'/bbs/NCCU_trans/index.html'
p379
aS'/bbs/NCCU05_JAPAN/index.html'
p380
aS'/bbs/NCCU06_PF/index.html'
p381
aS'/bbs/NCCU_S.A./index.html'
p382
aS'/bbs/NTUMSE-95/index.html'
p383
aS'/bbs/NCCU_PCSH/index.html'
p384
aS'/bbs/NCCU09_MAENG/index.html'
p385
aS'/bbs/NTUBEBI/index.html'
p386
aS'/bbs/Philo-03/index.html'
p387
aS'/bbs/B953023XX/index.html'
p388
aS'/bbs/NCCU04PAGRAD/index.html'
p389
aS'/bbs/b944060XX/index.html'
p390
aS'/bbs/NTUBA89-1/index.html'
p391
aS'/bbs/NCCU_NHSU/index.html'
p392
aS'/bbs/NCCU02_MAT/index.html'
p393
aS'/bbs/b875060xx/index.html'
p394
aS'/bbs/NTUnba2005/index.html'
p395
aS'/bbs/NCCU03_TUR/index.html'
p396
aS'/bbs/NTUF-97/index.html'
p397
aS'/bbs/NCCU09_PSYCH/index.html'
p398
aS'/bbs/AT_Baseball/index.html'
p399
aS'/bbs/NCCU98_JOUR/index.html'
p400
aS'/bbs/NCCU09_TUR/index.html'
p401
aS'/bbs/PT-99/index.html'
p402
aS'/bbs/NCCU10FMGRAD/index.html'
p403
aS'/bbs/NCCU03_MAT/index.html'
p404
aS'/bbs/NTUIEEB/index.html'
p405
aS'/bbs/NTUfin04/index.html'
p406
aS'/bbs/NTUphy93/index.html'
p407
aS'/bbs/NTUMT-90/index.html'
p408
aS'/bbs/B963021XX/index.html'
p409
aS'/bbs/OT-pingpong/index.html'
p410
aS'/bbs/AT_Badminton/index.html'
p411
aS'/bbs/STATPingPong/index.html'
p412
aS'/bbs/NTUCEST/index.html'
p413
aS'/bbs/NCCU99_CHI/index.html'
p414
aS'/bbs/LifeSci_Work/index.html'
p415
aS'/bbs/NCCU10_LANDG/index.html'
p416
aS'/bbs/CL-badminton/index.html'
p417
aS'/bbs/NTUACPP/index.html'
p418
aS'/bbs/NTUSCSA/index.html'
p419
aS'/bbs/NCCU99_MIS/index.html'
p420
aS'/bbs/BioChem_95/index.html'
p421
aS'/bbs/NTUEE108/index.html'
p422
aS'/bbs/HT-Landscape/index.html'
p423
aS'/bbs/PPE-SPORT/index.html'
p424
aS'/bbs/survivor/index.html'
p425
aS'/bbs/NTUH_INTERN/index.html'
p426
aS'/bbs/CEM92/index.html'
p427
aS'/bbs/NCCU_Magic/index.html'
p428
aS'/bbs/NCCU_RNR/index.html'
p429
aS'/bbs/ntuACCT99/index.html'
p430
aS'/bbs/NCCU_FBB/index.html'
p431
aS'/bbs/NCCU_MDHS/index.html'
p432
aS'/bbs/NCCU_mathG97/index.html'
p433
aS'/bbs/b904060XX/index.html'
p434
aS'/bbs/NCCU07_LAND/index.html'
p435
aS'/bbs/CSIE_SWIM/index.html'
p436
aS'/bbs/NCCU09_CHIS/index.html'
p437
aS'/bbs/NCCU_DANCE/index.html'
p438
aS'/bbs/NCCU10_EA/index.html'
p439
aS'/bbs/NCCU-THSJ/index.html'
p440
aS'/bbs/NCCU10_Ethno/index.html'
p441
aS'/bbs/ENG_Service/index.html'
p442
aS'/bbs/Polbaseball/index.html'
p443
aS'/bbs/NTUEE114HW/index.html'
p444
aS'/bbs/NCCU11_LING/index.html'
p445
aS'/bbs/AGECR94/index.html'
p446
aS'/bbs/NTUR941230XX/index.html'
p447
aS'/bbs/SocialRoom/index.html'
p448
aS'/bbs/B98A013XX/index.html'
p449
aS'/bbs/math_Base/index.html'
p450
aS'/bbs/NTUCH-90/index.html'
p451
aS'/bbs/NCCU08FMGRAD/index.html'
p452
aS'/bbs/NCCU07_MBA/index.html'
p453
aS'/bbs/B99310XXX/index.html'
p454
aS'/bbs/NCCU12_Math/index.html'
p455
aS'/bbs/ME-SOCCER/index.html'
p456
aS'/bbs/AnthroMotor/index.html'
p457
aS'/bbs/NCCU10_MAENG/index.html'
p458
aS'/bbs/NCCUCHI_GB/index.html'
p459
aS'/bbs/R97A41XXX/index.html'
p460
aS'/bbs/NCCU01_LawLt/index.html'
p461
aS'/bbs/NCCU07_CHI/index.html'
p462
aS'/bbs/NCCU10_PSYGR/index.html'
p463
aS'/bbs/BioChem_96/index.html'
p464
aS'/bbs/CSIE_Pool/index.html'
p465
aS'/bbs/NTUBIME-101/index.html'
p466
aS'/bbs/BOTANY_92/index.html'
p467
aS'/bbs/ESOE-soccer/index.html'
p468
aS'/bbs/PT-95/index.html'
p469
aS'/bbs/Geotecheng96/index.html'
p470
aS'/bbs/AR_Badminton/index.html'
p471
aS'/bbs/NCCULabor90/index.html'
p472
aS'/bbs/NCCU_SOCCER/index.html'
p473
aS'/bbs/LS_Zoology/index.html'
p474
aS'/bbs/NTUMath-Fire/index.html'
p475
aS'/bbs/NCCU99_Stat/index.html'
p476
aS'/bbs/NCCU08-IIP/index.html'
p477
aS'/bbs/B003021XX/index.html'
p478
aS'/bbs/NTU-Textbook/index.html'
p479
aS'/bbs/NTUHistory98/index.html'
p480
aS'/bbs/R993220PT/index.html'
p481
aS'/bbs/NCCU09_ITMBA/index.html'
p482
aS'/bbs/Poltransfer/index.html'
p483
aS'/bbs/NCCU_mathG96/index.html'
p484
aS'/bbs/NTUMath94/index.html'
p485
aS'/bbs/B893023xx/index.html'
p486
aS'/bbs/NCCU_YAIC/index.html'
p487
aS'/bbs/NCCU10_Eng/index.html'
p488
aS'/bbs/NCCU01_Arab/index.html'
p489
aS'/bbs/b974060XX/index.html'
p490
aS'/bbs/NCCU_MakeUp/index.html'
p491
aS'/bbs/NTUPHBUILT/index.html'
p492
aS'/bbs/NTU97DFLL/index.html'
p493
aS'/bbs/NCCU06_RMI/index.html'
p494
aS'/bbs/NTUJapan08/index.html'
p495
aS'/bbs/NCCU06_SW/index.html'
p496
aS'/bbs/NCCU06_LawHa/index.html'
p497
aS'/bbs/NTUHistory94/index.html'
p498
aS'/bbs/NTUHORTI98/index.html'
p499
aS'/bbs/NCCU05_PSYCH/index.html'
p500
aS'/bbs/B97303XXX/index.html'
p501
aS'/bbs/NTUdenTennis/index.html'
p502
aS'/bbs/PH-91/index.html'
p503
aS'/bbs/NCCU02_PA/index.html'
p504
aS'/bbs/NTUCE-107/index.html'
p505
aS'/bbs/NTUfin90/index.html'
p506
aS'/bbs/Epi-94/index.html'
p507
aS'/bbs/NTU-IPH96/index.html'
p508
aS'/bbs/NTUND94/index.html'
p509
aS'/bbs/NTUFIN-88/index.html'
p510
aS'/bbs/NCCU08_LawA/index.html'
p511
aS'/bbs/PSY_Cheer/index.html'
p512
aS'/bbs/CAECE/index.html'
p513
aS'/bbs/PT-96/index.html'
p514
aS'/bbs/NCCU07_GRMI/index.html'
p515
aS'/bbs/R973250xx/index.html'
p516
aS'/bbs/Anthrosuper/index.html'
p517
aS'/bbs/NCCU08_ITMBA/index.html'
p518
aS'/bbs/NTUJapan02/index.html'
p519
aS'/bbs/NTUIB01/index.html'
p520
aS'/bbs/NCCU04_DIP/index.html'
p521
aS'/bbs/B873022XX/index.html'
p522
aS'/bbs/NCCU11_PA/index.html'
p523
aS'/bbs/NCCU08_Stat/index.html'
p524
aS'/bbs/b95610xxx/index.html'
p525
aS'/bbs/NCCU_BA/index.html'
p526
aS'/bbs/NTUBA92/index.html'
p527
aS'/bbs/NCCU_CBL/index.html'
p528
aS'/bbs/NCCU02_TUR/index.html'
p529
aS'/bbs/NtuDormM2/index.html'
p530
aS'/bbs/NTUAC101/index.html'
p531
aS'/bbs/NCCU00_BA/index.html'
p532
aS'/bbs/ntuACCT00/index.html'
p533
aS'/bbs/NCCU10_EcoG/index.html'
p534
aS'/bbs/NCCU01_AT-B/index.html'
p535
aS'/bbs/NCCU10_LawC/index.html'
p536
aS'/bbs/Agronomy-92/index.html'
p537
aS'/bbs/PH-92/index.html'
p538
aS'/bbs/CVEvolley/index.html'
p539
aS'/bbs/NCCU_TaiChi/index.html'
p540
aS'/bbs/B88A013XX/index.html'
p541
aS'/bbs/NTUMEB96/index.html'
p542
aS'/bbs/NCCU06_LANDG/index.html'
p543
aS'/bbs/B90A013XX/index.html'
p544
aS'/bbs/NCCU14_SOCI/index.html'
p545
aS'/bbs/Anthro10/index.html'
p546
aS'/bbs/NCCU_LifeRes/index.html'
p547
aS'/bbs/NTUEE_SI/index.html'
p548
aS'/bbs/NCCU_CG/index.html'
p549
aS'/bbs/NTUOCPHY/index.html'
p550
aS'/bbs/B97A011XX/index.html'
p551
aS'/bbs/NTUMBA-89/index.html'
p552
aS'/bbs/AGECR100/index.html'
p553
aS'/bbs/NTU-GIIB2007/index.html'
p554
aS'/bbs/AGEC90/index.html'
p555
aS'/bbs/B883022xx/index.html'
p556
aS'/bbs/NTUCH-106/index.html'
p557
aS'/bbs/NCCU_ChungYo/index.html'
p558
aS'/bbs/MSEVolley/index.html'
p559
aS'/bbs/NCCU00_DIP/index.html'
p560
aS'/bbs/GoodNews/index.html'
p561
aS'/bbs/LAW_cheer/index.html'
p562
aS'/bbs/FinBadminton/index.html'
p563
aS'/bbs/Eco_Volley/index.html'
p564
aS'/bbs/SummerCourse/index.html'
p565
aS'/bbs/NCCU05_PSYGR/index.html'
p566
aS'/bbs/NTUCHE-99-HW/index.html'
p567
aS'/bbs/NCCU10-IIP/index.html'
p568
aS'/bbs/NTUCE-94/index.html'
p569
aS'/bbs/NCCU09_HISTO/index.html'
p570
aS'/bbs/CEM94/index.html'
p571
aS'/bbs/NTU-HTvolley/index.html'
p572
aS'/bbs/NCCU07_EA/index.html'
p573
aS'/bbs/NTUBIME-104/index.html'
p574
aS'/bbs/NCCU07_EcoG/index.html'
p575
aS'/bbs/CS_Softball/index.html'
p576
aS'/bbs/FinTennis/index.html'
p577
aS'/bbs/NTUBIME102HW/index.html'
p578
aS'/bbs/Anthro98/index.html'
p579
aS'/bbs/NCCU99_PS/index.html'
p580
aS'/bbs/NTUBSE-B-96/index.html'
p581
aS'/bbs/NHistory94/index.html'
p582
aS'/bbs/NCCU_FA/index.html'
p583
aS'/bbs/CSCamp2002/index.html'
p584
aS'/bbs/NCCU09_GRMI/index.html'
p585
aS'/bbs/NTU-EM91/index.html'
p586
aS'/bbs/NCCU98_PA/index.html'
p587
aS'/bbs/NTUBSE-B-88/index.html'
p588
aS'/bbs/geography104/index.html'
p589
aS'/bbs/NTU89thLIS/index.html'
p590
aS'/bbs/BOTANY_95/index.html'
p591
aS'/bbs/NCCU_Eng_VB/index.html'
p592
aS'/bbs/NTUBP-R98/index.html'
p593
aS'/bbs/NTUmed89/index.html'
p594
aS'/bbs/EEBadminton/index.html'
p595
aS'/bbs/NCCU_Paint/index.html'
p596
aS'/bbs/INFOCUP2006/index.html'
p597
aS'/bbs/NCCU_BM/index.html'
p598
aS'/bbs/LS_Handball/index.html'
p599
aS'/bbs/vet_90/index.html'
p600
aS'/bbs/NTUBA-847012/index.html'
p601
aS'/bbs/NCCU12_Arab/index.html'
p602
aS'/bbs/NCCU04_ITMBA/index.html'
p603
aS'/bbs/NCCU98_PF/index.html'
p604
aS'/bbs/Horti-90/index.html'
p605
aS'/bbs/NTUdent00/index.html'
p606
aS'/bbs/NCCU05_Stat/index.html'
p607
aS'/bbs/B90A011XX/index.html'
p608
aS'/bbs/NCCU08_HISTO/index.html'
p609
aS'/bbs/ILoveCEP/index.html'
p610
aS'/bbs/NTUBA94study/index.html'
p611
aS'/bbs/NCCUStatDunk/index.html'
p612
aS'/bbs/B94310XXX/index.html'
p613
aS'/bbs/NCCU_MAB_TT/index.html'
p614
aS'/bbs/NCCU_ICtribe/index.html'
p615
aS'/bbs/Polioffice/index.html'
p616
aS'/bbs/NCCU_AT_VB/index.html'
p617
aS'/bbs/R90325xxx/index.html'
p618
aS'/bbs/NTUmicro_97/index.html'
p619
aS'/bbs/DIP_Gbasket/index.html'
p620
aS'/bbs/NTUfin98/index.html'
p621
aS'/bbs/Law-Fala/index.html'
p622
aS'/bbs/NCCU02_BANK/index.html'
p623
aS'/bbs/B88A011XX/index.html'
p624
aS'/bbs/NCCU02FMGRAD/index.html'
p625
aS'/bbs/NTUFRC-89/index.html'
p626
aS'/bbs/ntu-sv/index.html'
p627
aS'/bbs/NTUPPM-95/index.html'
p628
aS'/bbs/NTUfin97/index.html'
p629
aS'/bbs/civil90/index.html'
p630
aS'/bbs/NCCU00_PS/index.html'
p631
aS'/bbs/NTUdent98/index.html'
p632
aS'/bbs/NTUmoviefest/index.html'
p633
aS'/bbs/NTUMath92/index.html'
p634
aS'/bbs/Philo-FBT/index.html'
p635
aS'/bbs/NCCU08_Arab/index.html'
p636
aS'/bbs/NTUR921230XX/index.html'
p637
aS'/bbs/NTUEE111HW/index.html'
p638
aS'/bbs/BeautyClub/index.html'
p639
aS'/bbs/NTUnSA/index.html'
p640
aS'/bbs/NTUMT-SA/index.html'
p641
aS'/bbs/NTUPPM-99/index.html'
p642
aS'/bbs/NTUOralBio98/index.html'
p643
aS'/bbs/NTUMT-89/index.html'
p644
aS'/bbs/NCCU05_MAT/index.html'
p645
aS'/bbs/B95305XXX/index.html'
p646
aS'/bbs/B923023XX/index.html'
p647
aS'/bbs/NCCU98_TUR/index.html'
p648
aS'/bbs/NCCU_TCSSH/index.html'
p649
aS'/bbs/ntuACCT97/index.html'
p650
aS'/bbs/NTU-HCOA95/index.html'
p651
aS'/bbs/NTUot89/index.html'
p652
aS'/bbs/STATBilliard/index.html'
p653
aS'/bbs/NTUBST93/index.html'
p654
aS'/bbs/NCCU09_SW/index.html'
p655
aS'/bbs/NTUHorti91/index.html'
p656
aS'/bbs/Epi-99/index.html'
p657
aS'/bbs/NTUMEB03/index.html'
p658
aS'/bbs/NCCUNewBoard/index.html'
p659
aS'/bbs/NTUCHEbmton/index.html'
p660
aS'/bbs/NCCU_ICE/index.html'
p661
aS'/bbs/NCCU07_SOCIO/index.html'
p662
aS'/bbs/B96A012XX/index.html'
p663
aS'/bbs/NTUMBA-91/index.html'
p664
aS'/bbs/NCCUPHY99/index.html'
p665
aS'/bbs/LawBasketbal/index.html'
p666
aS'/bbs/NTUMEB89-B/index.html'
p667
aS'/bbs/B91205XXX/index.html'
p668
aS'/bbs/ArabicSoccer/index.html'
p669
aS'/bbs/VET_98/index.html'
p670
aS'/bbs/NCCU05_RMI/index.html'
p671
aS'/bbs/B90303XXX/index.html'
p672
aS'/bbs/NTUBA01/index.html'
p673
aS'/bbs/ginfa/index.html'
p674
aS'/bbs/NCCU02_GRMI/index.html'
p675
aS'/bbs/HISTORY/index.html'
p676
aS'/bbs/NCCU_RealEst/index.html'
p677
aS'/bbs/B95A012XX/index.html'
p678
aS'/bbs/NCCU97_Histo/index.html'
p679
aS'/bbs/b912040XX/index.html'
p680
aS'/bbs/B00303XXX/index.html'
p681
aS'/bbs/NCCU10_TWHis/index.html'
p682
aS'/bbs/NCCU08_MAT/index.html'
p683
aS'/bbs/NTU07DFLL/index.html'
p684
aS'/bbs/NCCU12_BANK/index.html'
p685
aS'/bbs/B91A013XX/index.html'
p686
aS'/bbs/b01902xxx/index.html'
p687
aS'/bbs/NCCU10_JAPAN/index.html'
p688
aS'/bbs/NTUOCChe/index.html'
p689
aS'/bbs/NCCU_EthnoG/index.html'
p690
aS'/bbs/Chang_Course/index.html'
p691
aS'/bbs/NTUIMM97/index.html'
p692
aS'/bbs/NCCU_mathG99/index.html'
p693
aS'/bbs/NTUFVOLLEYBL/index.html'
p694
aS'/bbs/LegalService/index.html'
p695
aS'/bbs/NCCU05_AT-B/index.html'
p696
aS'/bbs/NCCU_BG/index.html'
p697
aS'/bbs/NCCUSF_HISTO/index.html'
p698
aS'/bbs/Anthro03/index.html'
p699
aS'/bbs/NCCU04_SOCI/index.html'
p700
aS'/bbs/NTUJapan12/index.html'
p701
aS'/bbs/NTUfin01/index.html'
p702
aS'/bbs/NCCU11_HISTO/index.html'
p703
aS'/bbs/Geotecheng98/index.html'
p704
aS'/bbs/B94305XXX/index.html'
p705
aS'/bbs/NTUMEB88-C/index.html'
p706
aS'/bbs/b924060XX/index.html'
p707
aS'/bbs/NTU-HCOA98/index.html'
p708
aS'/bbs/NTUIBMB97/index.html'
p709
aS'/bbs/NTUMSE-93/index.html'
p710
aS'/bbs/HistoryClub/index.html'
p711
aS'/bbs/NTUCE-97/index.html'
p712
aS'/bbs/NCCU-MATH94/index.html'
p713
aS'/bbs/NCCU03_LawHa/index.html'
p714
aS'/bbs/NCCU_Guitar/index.html'
p715
aS'/bbs/PhySoftball/index.html'
p716
aS'/bbs/NCCU04_LANDG/index.html'
p717
aS'/bbs/Agri_Service/index.html'
p718
aS'/bbs/NTUF-01/index.html'
p719
aS'/bbs/CVEbaseball/index.html'
p720
aS'/bbs/NCCU11_Eco/index.html'
p721
aS'/bbs/NCCU03_BA/index.html'
p722
aS'/bbs/b98610xxx/index.html'
p723
aS'/bbs/NTUEE110/index.html'
p724
aS'/bbs/VET_101/index.html'
p725
aS'/bbs/F_MED99/index.html'
p726
aS'/bbs/NTUMEB92-HW/index.html'
p727
aS'/bbs/R993230XX/index.html'
p728
aS'/bbs/NTUDrama96/index.html'
p729
aS'/bbs/ntuACCT07/index.html'
p730
aS'/bbs/NTU03DFLL/index.html'
p731
aS'/bbs/NCCU10_Euro/index.html'
p732
aS'/bbs/NCCU01_PA/index.html'
p733
aS'/bbs/NCCU12_AT_B/index.html'
p734
aS'/bbs/NCCUStabaskg/index.html'
p735
aS'/bbs/NCCU_AltEdu/index.html'
p736
aS'/bbs/NTU_MED_VOL/index.html'
p737
aS'/bbs/NCCU10_AT_A/index.html'
p738
aS'/bbs/NCCU06_Stat/index.html'
p739
aS'/bbs/b84610xxx/index.html'
p740
aS'/bbs/NTUR961230XX/index.html'
p741
aS'/bbs/NTUF-92/index.html'
p742
aS'/bbs/NTUphy98/index.html'
p743
aS'/bbs/NCCU05_ITMBA/index.html'
p744
aS'/bbs/NCCU_GPHOTO/index.html'
p745
aS'/bbs/NCCU_EDU/index.html'
p746
aS'/bbs/NTUOCBio/index.html'
p747
aS'/bbs/NTUCHEvball/index.html'
p748
aS'/bbs/EESummerCamp/index.html'
p749
aS'/bbs/NTUHistory91/index.html'
p750
aS'/bbs/NCCUCrosTalk/index.html'
p751
aS'/bbs/NTUPP-87/index.html'
p752
aS'/bbs/NCCU04_MBA/index.html'
p753
aS'/bbs/NCCU07_MAD/index.html'
p754
aS'/bbs/NTUACCTR99/index.html'
p755
aS'/bbs/NCCUECOTRANS/index.html'
p756
aS'/bbs/PH-100/index.html'
p757
aS'/bbs/NTUDormM7/index.html'
p758
aS'/bbs/EEVolley/index.html'
p759
aS'/bbs/B863011XX/index.html'
p760
aS'/bbs/Land_Volley/index.html'
p761
aS'/bbs/NCCU_ENGSA/index.html'
p762
aS'/bbs/NCCU09_PHILO/index.html'
p763
aS'/bbs/Agronomy/index.html'
p764
aS'/bbs/Atmosphere/index.html'
p765
aS'/bbs/NTU_Beauty/index.html'
p766
aS'/bbs/NTUAC-BSKTBL/index.html'
p767
aS'/bbs/NTUCE-100/index.html'
p768
aS'/bbs/NTUBEBI_99/index.html'
p769
aS'/bbs/R943220PT/index.html'
p770
aS'/bbs/ESOE-94/index.html'
p771
aS'/bbs/civil84/index.html'
p772
aS'/bbs/VET_97/index.html'
p773
aS'/bbs/ntuACCT06/index.html'
p774
aS'/bbs/NCCU06_MJOUR/index.html'
p775
aS'/bbs/MSEbadminton/index.html'
p776
aS'/bbs/Agronomy-102/index.html'
p777
aS'/bbs/NCCU10_LING/index.html'
p778
aS'/bbs/ASTRO_ELDER/index.html'
p779
aS'/bbs/GIEE_100/index.html'
p780
aS'/bbs/OT-badminton/index.html'
p781
aS'/bbs/NCCU_Tennis/index.html'
p782
aS'/bbs/NCCU11_Math/index.html'
p783
aS'/bbs/NCCU98_LAND/index.html'
p784
aS'/bbs/HIS_Volley/index.html'
p785
aS'/bbs/NTUEE113/index.html'
p786
aS'/bbs/NCCU_RU/index.html'
p787
aS'/bbs/NTU-Music98/index.html'
p788
aS'/bbs/NTUmedvolybl/index.html'
p789
aS'/bbs/F_MED95/index.html'
p790
aS'/bbs/NCCU05_STGRA/index.html'
p791
aS'/bbs/phys94/index.html'
p792
aS'/bbs/NCCU04_Histo/index.html'
p793
aS'/bbs/NCCU03_LAND/index.html'
p794
aS'/bbs/NCCU08_SW/index.html'
p795
aS'/bbs/NTUphy97/index.html'
p796
aS'/bbs/Ethics/index.html'
p797
aS'/bbs/phys89/index.html'
p798
aS'/bbs/ntuACCT02/index.html'
p799
aS'/bbs/NTUBSE-B-94/index.html'
p800
aS'/bbs/B953021XX/index.html'
p801
aS'/bbs/PF_BASKET/index.html'
p802
aS'/bbs/Korea_Sports/index.html'
p803
aS'/bbs/Psychology94/index.html'
p804
aS'/bbs/B93A012XX/index.html'
p805
aS'/bbs/NCCUpp_OB/index.html'
p806
aS'/bbs/NCCU09_SOCIO/index.html'
p807
aS'/bbs/NCCU14_CHI/index.html'
p808
aS'/bbs/NCCU04_PA/index.html'
p809
aS'/bbs/SO-Badminton/index.html'
p810
aS'/bbs/NTUMPS/index.html'
p811
aS'/bbs/ntuACCT90/index.html'
p812
aS'/bbs/R953230XX/index.html'
p813
aS'/bbs/PF_WNBA/index.html'
p814
aS'/bbs/NTUGeogTtnis/index.html'
p815
aS'/bbs/CSIE_Volley/index.html'
p816
aS'/bbs/NCCULifeTell/index.html'
p817
aS'/bbs/NTUEE118/index.html'
p818
aS'/bbs/NTUF-94/index.html'
p819
aS'/bbs/NTUCLS/index.html'
p820
aS'/bbs/BOTANY_94/index.html'
p821
aS'/bbs/GIEE_94/index.html'
p822
aS'/bbs/NTUMSE-96/index.html'
p823
aS'/bbs/NCCU08_SOCI/index.html'
p824
aS'/bbs/NCCU_ZEN/index.html'
p825
aS'/bbs/vetgoabroad/index.html'
p826
aS'/bbs/NTUCH-99/index.html'
p827
aS'/bbs/NCCU_VB/index.html'
p828
aS'/bbs/NTUBIME-102/index.html'
p829
aS'/bbs/AGECR98/index.html'
p830
aS'/bbs/NCCU_WBA/index.html'
p831
aS'/bbs/NTUHistory02/index.html'
p832
aS'/bbs/NTUBIME-96/index.html'
p833
aS'/bbs/Law_Service/index.html'
p834
aS'/bbs/NCCU98_AD/index.html'
p835
aS'/bbs/NCCU05_CHI/index.html'
p836
aS'/bbs/NtuDormM8/index.html'
p837
aS'/bbs/NTUIB88/index.html'
p838
aS'/bbs/F_MED96/index.html'
p839
aS'/bbs/ntuACCT94/index.html'
p840
aS'/bbs/NCCU08_KOREA/index.html'
p841
aS'/bbs/B003023XX/index.html'
p842
aS'/bbs/NCCU12_PF/index.html'
p843
aS'/bbs/NCCU_Herself/index.html'
p844
aS'/bbs/NTUEE116/index.html'
p845
aS'/bbs/NCCU06_PSYGR/index.html'
p846
aS'/bbs/NTUCH-95/index.html'
p847
aS'/bbs/Structure91/index.html'
p848
aS'/bbs/LS_pingpong/index.html'
p849
aS'/bbs/NCCU08_LAND/index.html'
p850
aS'/bbs/NTUCL-Bridge/index.html'
p851
aS'/bbs/Transport94/index.html'
p852
aS'/bbs/NTUBST91/index.html'
p853
aS'/bbs/NCCU09_MAT/index.html'
p854
aS'/bbs/NTUPP-88/index.html'
p855
aS'/bbs/R911210XX/index.html'
p856
aS'/bbs/NTUMT-94/index.html'
p857
aS'/bbs/NCCU00_Histo/index.html'
p858
aS'/bbs/NTUMEB94-C/index.html'
p859
aS'/bbs/NCCU11_STGRA/index.html'
p860
aS'/bbs/NTUfin96/index.html'
p861
aS'/bbs/R013230XX/index.html'
p862
aS'/bbs/NTUIB98/index.html'
p863
aS'/bbs/ESOE-Badmin/index.html'
p864
aS'/bbs/NTUEE115/index.html'
p865
aS'/bbs/b07902xxx/index.html'
p866
aS'/bbs/gender-child/index.html'
p867
aS'/bbs/NTUEE_Lab426/index.html'
p868
aS'/bbs/R011210XX/index.html'
p869
aS'/bbs/B983021XX/index.html'
p870
aS'/bbs/ESOE-SWIM/index.html'
p871
aS'/bbs/NTUDFLL-MA98/index.html'
p872
aS'/bbs/NCCU_Academc/index.html'
p873
aS'/bbs/Law-Skate/index.html'
p874
aS'/bbs/NCCU00_FM/index.html'
p875
aS'/bbs/MEbasketball/index.html'
p876
aS'/bbs/NCCU07FMGRAD/index.html'
p877
aS'/bbs/b832040xx/index.html'
p878
aS'/bbs/NCCU08_Math/index.html'
p879
aS'/bbs/NCCU06_Euro/index.html'
p880
aS'/bbs/B941010XX/index.html'
p881
aS'/bbs/NCCUASA/index.html'
p882
aS'/bbs/NCCU99_LAND/index.html'
p883
aS'/bbs/NTUMath91/index.html'
p884
aS'/bbs/NCCU07_AT-A/index.html'
p885
aS'/bbs/civil97/index.html'
p886
aS'/bbs/NTUMEB93-A/index.html'
p887
aS'/bbs/NTUEE_WMN/index.html'
p888
aS'/bbs/NCCU09_BA/index.html'
p889
aS'/bbs/NCCUPA_SPORT/index.html'
p890
aS'/bbs/NCCU07_PHILO/index.html'
p891
aS'/bbs/b00902HW/index.html'
p892
aS'/bbs/NCCU04_AT-A/index.html'
p893
aS'/bbs/NTU-Exam/index.html'
p894
aS'/bbs/Talk_Service/index.html'
p895
aS'/bbs/NCCU13_HISTO/index.html'
p896
aS'/bbs/NCCU04_LawLt/index.html'
p897
aS'/bbs/NTUFRC88/index.html'
p898
aS'/bbs/NCCU_tap/index.html'
p899
aS'/bbs/NTUDrama99/index.html'
p900
aS'/bbs/NTUACCTR94/index.html'
p901
aS'/bbs/LS_softball/index.html'
p902
aS'/bbs/I_LOVE_MRI/index.html'
p903
aS'/bbs/PhiBadminton/index.html'
p904
aS'/bbs/stat_since01/index.html'
p905
aS'/bbs/NCCU_Volley/index.html'
p906
aS'/bbs/NTUMEGRA/index.html'
p907
aS'/bbs/NTUMath97/index.html'
p908
aS'/bbs/NCCU06_LAND/index.html'
p909
aS'/bbs/NTUDormG3/index.html'
p910
aS'/bbs/Agronomy-101/index.html'
p911
aS'/bbs/NTUfinWork/index.html'
p912
aS'/bbs/NTUFS-90/index.html'
p913
aS'/bbs/phys01/index.html'
p914
aS'/bbs/NCCU05_DIP/index.html'
p915
aS'/bbs/NTUJapan01/index.html'
p916
aS'/bbs/R963220PT/index.html'
p917
aS'/bbs/NCCUGO/index.html'
p918
aS'/bbs/R951210XX/index.html'
p919
aS'/bbs/NTUEOE_R402/index.html'
p920
aS'/bbs/Agronomy-97/index.html'
p921
aS'/bbs/NCCU_Climb/index.html'
p922
aS'/bbs/B00305XXX/index.html'
p923
aS'/bbs/NCCU_BWYC/index.html'
p924
aS'/bbs/Trunk/index.html'
p925
aS'/bbs/NtuDormF3/index.html'
p926
aS'/bbs/B923021XX/index.html'
p927
aS'/bbs/NTUND98/index.html'
p928
aS'/bbs/PH-99/index.html'
p929
aS'/bbs/nomind/index.html'
p930
aS'/bbs/DIP_BASKET/index.html'
p931
aS'/bbs/NCCU08_LANDG/index.html'
p932
aS'/bbs/NTUIM-KMDLab/index.html'
p933
aS'/bbs/NCCU00_BANK/index.html'
p934
aS'/bbs/B88303XXX/index.html'
p935
aS'/bbs/HuaXiaCmusic/index.html'
p936
aS'/bbs/NCCU_FHL/index.html'
p937
aS'/bbs/NCCU02_PHILO/index.html'
p938
aS'/bbs/Psy_PingPong/index.html'
p939
aS'/bbs/PolBadminton/index.html'
p940
aS'/bbs/b03902xxx/index.html'
p941
aS'/bbs/NTUAC91/index.html'
p942
aS'/bbs/IB_Basket/index.html'
p943
aS'/bbs/NCCU_C-Baske/index.html'
p944
aS'/bbs/NCCU02_DIP/index.html'
p945
aS'/bbs/B863022XX/index.html'
p946
aS'/bbs/NTUBA00/index.html'
p947
aS'/bbs/NTUFS-98/index.html'
p948
aS'/bbs/VETbadminton/index.html'
p949
aS'/bbs/PsychoTT/index.html'
p950
aS'/bbs/NCCU06_PSYCH/index.html'
p951
aS'/bbs/D95323XXX/index.html'
p952
aS'/bbs/NCCU99_PSYCH/index.html'
p953
aS'/bbs/Psychology91/index.html'
p954
aS'/bbs/NTUJapan06/index.html'
p955
aS'/bbs/NCCU10_PF/index.html'
p956
aS'/bbs/NCCU_SOC/index.html'
p957
aS'/bbs/NTUMBA-00/index.html'
p958
aS'/bbs/NTUAC-FOOTBL/index.html'
p959
aS'/bbs/SongJerry/index.html'
p960
aS'/bbs/NCCU00_Eco/index.html'
p961
aS'/bbs/HisSoftBall/index.html'
p962
aS'/bbs/VETpingpong/index.html'
p963
aS'/bbs/B91A011XX/index.html'
p964
aS'/bbs/B01310XXX/index.html'
p965
aS'/bbs/NTUH_CLINT/index.html'
p966
aS'/bbs/NTUdent97/index.html'
p967
aS'/bbs/ME-BASEBALL/index.html'
p968
aS'/bbs/geography102/index.html'
p969
aS'/bbs/B98A012XX/index.html'
p970
aS'/bbs/NCCU04_PSYGR/index.html'
p971
aS'/bbs/Turkiyesporu/index.html'
p972
aS'/bbs/PH_service/index.html'
p973
aS'/bbs/NCCU07_Ghis/index.html'
p974
aS'/bbs/NCCU_poetry/index.html'
p975
aS'/bbs/NCCU_CIR/index.html'
p976
aS'/bbs/Anthro09/index.html'
p977
aS'/bbs/CLD/index.html'
p978
aS'/bbs/BIME-VOLLEY/index.html'
p979
aS'/bbs/NCCU07_GBANK/index.html'
p980
aS'/bbs/NCCU03_CHI/index.html'
p981
aS'/bbs/NTU-IEH97/index.html'
p982
aS'/bbs/B95303XXX/index.html'
p983
aS'/bbs/Lib_Service/index.html'
p984
aS'/bbs/NTUBST99/index.html'
p985
aS'/bbs/civil88/index.html'
p986
aS'/bbs/B99A012XX/index.html'
p987
aS'/bbs/NCCU08_PA/index.html'
p988
aS'/bbs/ntuACCT01/index.html'
p989
aS'/bbs/NCCU_PFBASE/index.html'
p990
aS'/bbs/NCCU05_LAND/index.html'
p991
aS'/bbs/ESOE-96/index.html'
p992
aS'/bbs/NTU-OMIH95/index.html'
p993
aS'/bbs/b99902xxx/index.html'
p994
aS'/bbs/NCCU07_GID/index.html'
p995
aS'/bbs/NTUot88/index.html'
p996
aS'/bbs/NTUIB04/index.html'
p997
aS'/bbs/NCCU_BRIDGE/index.html'
p998
aS'/bbs/NCCU00_TUR/index.html'
p999
aS'/bbs/NCCU02_Eco/index.html'
p1000
aS'/bbs/NTUDFLLSA/index.html'
p1001
aS'/bbs/Philo-06/index.html'
p1002
aS'/bbs/NCCU07_Eng/index.html'
p1003
aS'/bbs/NTUOralBio93/index.html'
p1004
aS'/bbs/SPC2012/index.html'
p1005
aS'/bbs/VET_91/index.html'
p1006
aS'/bbs/NCCU_YOGA/index.html'
p1007
aS'/bbs/R003230XX/index.html'
p1008
aS'/bbs/ArbBadminton/index.html'
p1009
aS'/bbs/AGEC100/index.html'
p1010
aS'/bbs/bse94work/index.html'
p1011
aS'/bbs/B95A011XX/index.html'
p1012
aS'/bbs/NCCU08_AT-B/index.html'
p1013
aS'/bbs/NTUG-ANATOMY/index.html'
p1014
aS'/bbs/NTUR931230XX/index.html'
p1015
aS'/bbs/VETsoftball/index.html'
p1016
aS'/bbs/Epi-96/index.html'
p1017
aS'/bbs/NTUMT-95/index.html'
p1018
aS'/bbs/b95902HW/index.html'
p1019
aS'/bbs/NTUEE_BL527/index.html'
p1020
aS'/bbs/NTUot90/index.html'
p1021
aS'/bbs/Law-Zen/index.html'
p1022
aS'/bbs/NTUHistory97/index.html'
p1023
aS'/bbs/NCCU04_GRMI/index.html'
p1024
aS'/bbs/B923022XX/index.html'
p1025
aS'/bbs/B99303XXX/index.html'
p1026
aS'/bbs/NCCU_AT-LALA/index.html'
p1027
aS'/bbs/NTUHistorySA/index.html'
p1028
aS'/bbs/B93310XXX/index.html'
p1029
aS'/bbs/Law-Pingpong/index.html'
p1030
aS'/bbs/VET_95/index.html'
p1031
aS'/bbs/NTUIBTEAM/index.html'
p1032
aS'/bbs/Anthropower/index.html'
p1033
aS'/bbs/b01610xxx/index.html'
p1034
aS'/bbs/NTUCE-92/index.html'
p1035
aS'/bbs/DIPBadminton/index.html'
p1036
aS'/bbs/NCCU_TFG/index.html'
p1037
aS'/bbs/MAB_WNBA/index.html'
p1038
aS'/bbs/NTUMT-85/index.html'
p1039
aS'/bbs/NTUEE112HW/index.html'
p1040
aS'/bbs/IB_Volley/index.html'
p1041
aS'/bbs/NTUMEB94-HW/index.html'
p1042
aS'/bbs/NCCU09FMGRAD/index.html'
p1043
aS'/bbs/NCCU_RELIPHI/index.html'
p1044
aS'/bbs/NTUmicro_99/index.html'
p1045
aS'/bbs/NCCU01_Histo/index.html'
p1046
aS'/bbs/LAW_Volley/index.html'
p1047
aS'/bbs/NCCU05RUSS/index.html'
p1048
aS'/bbs/CSIE_SOCCER/index.html'
p1049
aS'/bbs/NTUFBilliard/index.html'
p1050
aS'/bbs/b99610xxx/index.html'
p1051
aS'/bbs/NCCU08_GID/index.html'
p1052
aS'/bbs/B96305XXX/index.html'
p1053
aS'/bbs/NCCU00_PSYCH/index.html'
p1054
aS'/bbs/NCCUGleeClub/index.html'
p1055
aS'/bbs/NCCU11_SOCIO/index.html'
p1056
aS'/bbs/NTUEE114/index.html'
p1057
aS'/bbs/NTUPPM-98/index.html'
p1058
aS'/bbs/R953220PT/index.html'
p1059
aS'/bbs/NCCU07_HISTO/index.html'
p1060
aS'/bbs/geography93/index.html'
p1061
aS'/bbs/NTUJapan04/index.html'
p1062
aS'/bbs/NTUIMM99/index.html'
p1063
aS'/bbs/Psychology01/index.html'
p1064
aS'/bbs/NTUPPM-93/index.html'
p1065
aS'/bbs/R943230XX/index.html'
p1066
aS'/bbs/NTUBIME104HW/index.html'
p1067
aS'/bbs/NTUIM-08/index.html'
p1068
aS'/bbs/B913022XX/index.html'
p1069
aS'/bbs/Debate/index.html'
p1070
aS'/bbs/NTUfinGrad95/index.html'
p1071
aS'/bbs/PH-96/index.html'
p1072
aS'/bbs/B973022XX/index.html'
p1073
aS'/bbs/Law-Tennis/index.html'
p1074
aS'/bbs/NCCU02_PF/index.html'
p1075
aS'/bbs/b865060xx/index.html'
p1076
aS'/bbs/NCCU00_CS/index.html'
p1077
aS'/bbs/NCCU_Bodyfit/index.html'
p1078
aS'/bbs/b942040XX/index.html'
p1079
aS'/bbs/AGEC92/index.html'
p1080
aS'/bbs/NTUMG/index.html'
p1081
aS'/bbs/NCCU_PT/index.html'
p1082
aS'/bbs/NTUphyPinPon/index.html'
p1083
aS'/bbs/b872040XX/index.html'
p1084
aS'/bbs/NTUdentVol/index.html'
p1085
aS'/bbs/Psy-Team/index.html'
p1086
aS'/bbs/NCCU01_MAD/index.html'
p1087
aS'/bbs/NCCU99_LawLt/index.html'
p1088
aS'/bbs/NTUCHE-95-HW/index.html'
p1089
aS'/bbs/NCCU09_LawB/index.html'
p1090
aS'/bbs/NCCU99_SOCI/index.html'
p1091
aS'/bbs/AnthroDoggy/index.html'
p1092
aS'/bbs/NCCU_IT_BASE/index.html'
p1093
aS'/bbs/NCCU_Fantasy/index.html'
p1094
aS'/bbs/NTU-IFS/index.html'
p1095
aS'/bbs/NCCU_MAB_VB/index.html'
p1096
aS'/bbs/law_billiard/index.html'
p1097
aS'/bbs/NTUFT-tennis/index.html'
p1098
aS'/bbs/NTUMT-00/index.html'
p1099
aS'/bbs/NTUPSE-97/index.html'
p1100
aS'/bbs/NTUBA99/index.html'
p1101
aS'/bbs/NCCU_Wine/index.html'
p1102
aS'/bbs/CEM99/index.html'
p1103
aS'/bbs/NCCU09_GBANK/index.html'
p1104
aS'/bbs/NCCU01_LAND/index.html'
p1105
aS'/bbs/NTU-EM96/index.html'
p1106
aS'/bbs/NTUbus/index.html'
p1107
aS'/bbs/NCCU99_Eco/index.html'
p1108
aS'/bbs/NCCU08PAGARD/index.html'
p1109
aS'/bbs/NCCU10_Stat/index.html'
p1110
aS'/bbs/geography89/index.html'
p1111
aS'/bbs/PHI_Basketba/index.html'
p1112
aS'/bbs/NCCU11_DIP/index.html'
p1113
aS'/bbs/NCCU05_EA/index.html'
p1114
aS'/bbs/MIS_soccer/index.html'
p1115
aS'/bbs/NCCU04_ETHNO/index.html'
p1116
aS'/bbs/NTU-GIIB2010/index.html'
p1117
aS'/bbs/B933023XX/index.html'
p1118
aS'/bbs/NTUHorti97/index.html'
p1119
aS'/bbs/B00A013XX/index.html'
p1120
aS'/bbs/geography96/index.html'
p1121
aS'/bbs/NTUIB91/index.html'
p1122
aS'/bbs/NCCU10_LawB/index.html'
p1123
aS'/bbs/B953022XX/index.html'
p1124
aS'/bbs/NTUmed93/index.html'
p1125
aS'/bbs/NCCULabor97/index.html'
p1126
aS'/bbs/NCCU11_MBA/index.html'
p1127
aS'/bbs/Psychology95/index.html'
p1128
aS'/bbs/NCCU01FMGRAD/index.html'
p1129
aS'/bbs/B873021XX/index.html'
p1130
aS'/bbs/NCCU09_MJOUR/index.html'
p1131
aS'/bbs/B92305XXX/index.html'
p1132
aS'/bbs/b962040XX/index.html'
p1133
aS'/bbs/NCCU00_CHI/index.html'
p1134
aS'/bbs/Chi_academia/index.html'
p1135
aS'/bbs/NTUBEBI_98/index.html'
p1136
aS'/bbs/phys99/index.html'
p1137
aS'/bbs/NCCU05_LawFl/index.html'
p1138
aS'/bbs/NTUPSE-95/index.html'
p1139
aS'/bbs/NCCU11_LawB/index.html'
p1140
aS'/bbs/NCCU_Exam/index.html'
p1141
aS'/bbs/VET_100/index.html'
p1142
aS'/bbs/NCCU07_LawA/index.html'
p1143
aS'/bbs/HIS_SOCCER/index.html'
p1144
aS'/bbs/Eco_Tennis/index.html'
p1145
aS'/bbs/CEM98/index.html'
p1146
aS'/bbs/NCCU07_TUR/index.html'
p1147
aS'/bbs/NCCU01_JOUR/index.html'
p1148
aS'/bbs/NCCU05_Ghis/index.html'
p1149
aS'/bbs/FinBaseball/index.html'
p1150
aS'/bbs/NCCU13_PSYCH/index.html'
p1151
aS'/bbs/NTUDormF7/index.html'
p1152
aS'/bbs/NCCU_PF/index.html'
p1153
aS'/bbs/NCCU13_SOCI/index.html'
p1154
aS'/bbs/NTUCH-93/index.html'
p1155
aS'/bbs/Anthro99/index.html'
p1156
aS'/bbs/NTUMT-87/index.html'
p1157
aS'/bbs/geography97/index.html'
p1158
aS'/bbs/NTUCH-102/index.html'
p1159
aS'/bbs/NtuDormF5/index.html'
p1160
aS'/bbs/NTUBSE-B-99/index.html'
p1161
aS'/bbs/NCCU10_LawA/index.html'
p1162
aS'/bbs/Philo-09/index.html'
p1163
aS'/bbs/NCCU00_Arab/index.html'
p1164
aS'/bbs/b90902xxx/index.html'
p1165
aS'/bbs/NCCU_French/index.html'
p1166
aS'/bbs/NCCU02_LAND/index.html'
p1167
aS'/bbs/BOTANY_87/index.html'
p1168
aS'/bbs/B90305XXX/index.html'
p1169
aS'/bbs/NTUIB-PHD/index.html'
p1170
aS'/bbs/NCCU_JPCUP/index.html'
p1171
aS'/bbs/NCCU02_PSYGR/index.html'
p1172
aS'/bbs/b05902xxx/index.html'
p1173
aS'/bbs/NTUBSE-B-103/index.html'
p1174
aS'/bbs/NTUMEB00/index.html'
p1175
aS'/bbs/NCCU04_JAPAN/index.html'
p1176
aS'/bbs/B913021XX/index.html'
p1177
aS'/bbs/NCCU_AOF/index.html'
p1178
aS'/bbs/NtuDormF1/index.html'
p1179
aS'/bbs/NTULISBasket/index.html'
p1180
aS'/bbs/NTUDFLL-MA00/index.html'
p1181
aS'/bbs/NCCUBAPP/index.html'
p1182
aS'/bbs/NCCU07_LANDG/index.html'
p1183
aS'/bbs/NTUEE117/index.html'
p1184
aS'/bbs/NTUEE_ALC/index.html'
p1185
aS'/bbs/NtuDormM1/index.html'
p1186
aS'/bbs/NTUEE_IRA/index.html'
p1187
aS'/bbs/NCCUBaseball/index.html'
p1188
aS'/bbs/phys93/index.html'
p1189
aS'/bbs/NTUAC98/index.html'
p1190
aS'/bbs/NTUAC/index.html'
p1191
aS'/bbs/NCCU_debate/index.html'
p1192
aS'/bbs/LandPingPong/index.html'
p1193
aS'/bbs/B89303xxx/index.html'
p1194
aS'/bbs/NTUCAREER/index.html'
p1195
aS'/bbs/So-Camp/index.html'
p1196
aS'/bbs/NTUEE102/index.html'
p1197
aS'/bbs/NTUMEB90-B/index.html'
p1198
aS'/bbs/NTUFIN-90/index.html'
p1199
aS'/bbs/NCCU08_PHILO/index.html'
p1200
aS'/bbs/NCCU04_PF/index.html'
p1201
aS'/bbs/NCCU99_TUR/index.html'
p1202
aS'/bbs/NTUCHE-00-HW/index.html'
p1203
aS'/bbs/NCCU98_BA/index.html'
p1204
aS'/bbs/NCCU07_MAENG/index.html'
p1205
aS'/bbs/Coming_EE/index.html'
p1206
aS'/bbs/INSECT-93/index.html'
p1207
aS'/bbs/Journalism98/index.html'
p1208
aS'/bbs/NTUcourse/index.html'
p1209
aS'/bbs/PH-95/index.html'
p1210
aS'/bbs/B883023xx/index.html'
p1211
aS'/bbs/NCCU10_SOCI/index.html'
p1212
aS'/bbs/ntumsesport/index.html'
p1213
aS'/bbs/NCCU_KungFu/index.html'
p1214
aS'/bbs/NTUHistory03/index.html'
p1215
aS'/bbs/BOTANY_88/index.html'
p1216
aS'/bbs/b89610xxx/index.html'
p1217
aS'/bbs/NCCU01_AT-A/index.html'
p1218
aS'/bbs/R94A41XXX/index.html'
p1219
aS'/bbs/NCCU06_JAPAN/index.html'
p1220
aS'/bbs/NCCU12_CHI/index.html'
p1221
aS'/bbs/NCCU_Strive/index.html'
p1222
aS'/bbs/b98902HW/index.html'
p1223
aS'/bbs/NTUEOE-DOL/index.html'
p1224
aS'/bbs/NTUDrama92/index.html'
p1225
aS'/bbs/AT_PingPong/index.html'
p1226
aS'/bbs/Psy-BMT/index.html'
p1227
aS'/bbs/NCCU_MATH_VB/index.html'
p1228
aS'/bbs/NCCU11_Euro/index.html'
p1229
aS'/bbs/NCCU05_EcoG/index.html'
p1230
aS'/bbs/CSIE_Mahjong/index.html'
p1231
aS'/bbs/ESOE-Game/index.html'
p1232
aS'/bbs/phys85/index.html'
p1233
aS'/bbs/LifeSci_95/index.html'
p1234
aS'/bbs/NTUmed96/index.html'
p1235
aS'/bbs/KNTUACSA/index.html'
p1236
aS'/bbs/NTUdentSOFT/index.html'
p1237
aS'/bbs/Structure96/index.html'
p1238
aS'/bbs/NCCU_VolleyG/index.html'
p1239
aS'/bbs/Psychology03/index.html'
p1240
aS'/bbs/NCCU_LSWLAW/index.html'
p1241
aS'/bbs/ESOE-100/index.html'
p1242
aS'/bbs/NTUGIEOE/index.html'
p1243
aS'/bbs/NTUCHEbasket/index.html'
p1244
aS'/bbs/NCCU04_GID/index.html'
p1245
aS'/bbs/NCCU97_LAWHa/index.html'
p1246
aS'/bbs/NTUBSE-R-03/index.html'
p1247
aS'/bbs/NCCU01_BA/index.html'
p1248
aS'/bbs/NTUJapan-JV/index.html'
p1249
aS'/bbs/NTUIMTeam/index.html'
p1250
aS'/bbs/B01A012XX/index.html'
p1251
aS'/bbs/NTUJapan00/index.html'
p1252
aS'/bbs/NTUBST95/index.html'
p1253
aS'/bbs/MSEFOOTBALL/index.html'
p1254
aS'/bbs/NTUHistory96/index.html'
p1255
aS'/bbs/NTUCH-94/index.html'
p1256
aS'/bbs/NCCU_TIM98/index.html'
p1257
aS'/bbs/NCCU05_TWHis/index.html'
p1258
aS'/bbs/NTUSA/index.html'
p1259
aS'/bbs/NCCU06_PSG/index.html'
p1260
aS'/bbs/NCCU08_GIDS/index.html'
p1261
aS'/bbs/Transport92/index.html'
p1262
aS'/bbs/NCCU00_LawLt/index.html'
p1263
aS'/bbs/Epi-97/index.html'
p1264
aS'/bbs/NCCU99_AT-B/index.html'
p1265
aS'/bbs/NCCU06_HISTO/index.html'
p1266
aS'/bbs/LAND_Debate/index.html'
p1267
aS'/bbs/NTUBSTCOOL/index.html'
p1268
aS'/bbs/NTUfin06/index.html'
p1269
aS'/bbs/NCCU02_RMI/index.html'
p1270
aS'/bbs/NTUBIME-100/index.html'
p1271
aS'/bbs/NTUMSE91PASS/index.html'
p1272
aS'/bbs/PoDebate/index.html'
p1273
aS'/bbs/NCCU99_Histo/index.html'
p1274
aS'/bbs/geography94/index.html'
p1275
aS'/bbs/NTULawHome/index.html'
p1276
aS'/bbs/NTUEE_BL507/index.html'
p1277
aS'/bbs/b95902xxx/index.html'
p1278
aS'/bbs/NCCU02_ITMBA/index.html'
p1279
aS'/bbs/NCCU_mathG98/index.html'
p1280
aS'/bbs/NCCU05_GRMI/index.html'
p1281
aS'/bbs/ABC/index.html'
p1282
aS'/bbs/NTUBA03/index.html'
p1283
aS'/bbs/NTUCivilSA/index.html'
p1284
aS'/bbs/SocialWork/index.html'
p1285
aS'/bbs/NTUHistory93/index.html'
p1286
aS'/bbs/NTUJapan10/index.html'
p1287
aS'/bbs/NCCU_Jingju/index.html'
p1288
aS'/bbs/NCCU07_RUS/index.html'
p1289
aS'/bbs/R923230XX/index.html'
p1290
aS'/bbs/NTUphy00/index.html'
p1291
aS'/bbs/NTUR911230XX/index.html'
p1292
aS'/bbs/NTUphy03/index.html'
p1293
aS'/bbs/NTU10DFLL/index.html'
p1294
aS'/bbs/VETfootball/index.html'
p1295
aS'/bbs/NCCU_BEAUTY/index.html'
p1296
aS'/bbs/NTUACT_03/index.html'
p1297
aS'/bbs/NCCU_Leader/index.html'
p1298
aS'/bbs/NCCU10_PSYCH/index.html'
p1299
aS'/bbs/JP_Takkyuu/index.html'
p1300
aS'/bbs/NCCU_Bodhi/index.html'
p1301
aS'/bbs/NCCU_COOK/index.html'
p1302
aS'/bbs/VET_93/index.html'
p1303
aS'/bbs/B01305XXX/index.html'
p1304
aS'/bbs/NCCU02_CHI/index.html'
p1305
aS'/bbs/BA_CHEER/index.html'
p1306
aS'/bbs/NTUPPM-02/index.html'
p1307
aS'/bbs/B94A013XX/index.html'
p1308
aS'/bbs/NTUMEB87-A/index.html'
p1309
aS'/bbs/B993021XX/index.html'
p1310
aS'/bbs/NTUDormG4/index.html'
p1311
aS'/bbs/NTUGSA/index.html'
p1312
aS'/bbs/CSCamp2009/index.html'
p1313
aS'/bbs/Journalism90/index.html'
p1314
aS'/bbs/NCCU04_AT-B/index.html'
p1315
aS'/bbs/NCCU08_MAENG/index.html'
p1316
aS'/bbs/NCCU05_IIP/index.html'
p1317
aS'/bbs/NCCUCMdebate/index.html'
p1318
aS'/bbs/NCCU_CLHS/index.html'
p1319
aS'/bbs/NCCU_RBL/index.html'
p1320
aS'/bbs/NTUJapan-BS/index.html'
p1321
aS'/bbs/NCCU05_ETHNO/index.html'
p1322
aS'/bbs/NCCU02_AT-B/index.html'
p1323
aS'/bbs/NTUMSE-94/index.html'
p1324
aS'/bbs/ntuACCT89/index.html'
p1325
aS'/bbs/Law-Basket/index.html'
p1326
aS'/bbs/HISGVOLLEY/index.html'
p1327
aS'/bbs/AGECR99/index.html'
p1328
aS'/bbs/NCCU11_CHI/index.html'
p1329
aS'/bbs/NTUAC90/index.html'
p1330
aS'/bbs/NTUEE113HW/index.html'
p1331
aS'/bbs/Agronomy-96/index.html'
p1332
aS'/bbs/B90205XXX/index.html'
p1333
aS'/bbs/NCCU09_Eng/index.html'
p1334
aS'/bbs/NCCU05_PA/index.html'
p1335
aS'/bbs/EthnosBase/index.html'
p1336
aS'/bbs/NCCU11FMGRAD/index.html'
p1337
aS'/bbs/NTU_BOTDorm/index.html'
p1338
aS'/bbs/MIS_Gbasket/index.html'
p1339
aS'/bbs/NCCU05_BA/index.html'
p1340
aS'/bbs/b014060XX/index.html'
p1341
aS'/bbs/math-basket/index.html'
p1342
aS'/bbs/NCCU_M.B/index.html'
p1343
aS'/bbs/b002040XX/index.html'
p1344
aS'/bbs/NCCU_chimed/index.html'
p1345
aS'/bbs/NCCU_Wind/index.html'
p1346
aS'/bbs/NTUHistory05/index.html'
p1347
aS'/bbs/NCCU06_ECE/index.html'
p1348
aS'/bbs/NTUCL-ST/index.html'
p1349
aS'/bbs/NCCU13_PF/index.html'
p1350
aS'/bbs/Spring_Union/index.html'
p1351
aS'/bbs/civil85/index.html'
p1352
aS'/bbs/NTU_BioMEMS/index.html'
p1353
aS'/bbs/NCCU08_Euro/index.html'
p1354
aS'/bbs/CEM97/index.html'
p1355
aS'/bbs/INSECT-02/index.html'
p1356
aS'/bbs/ESOE-89/index.html'
p1357
aS'/bbs/NCCU05_GIDS/index.html'
p1358
aS'/bbs/LS_bridge/index.html'
p1359
aS'/bbs/SOUNDFILM/index.html'
p1360
aS'/bbs/NTUJapan07/index.html'
p1361
aS'/bbs/AIESEC_CCLC/index.html'
p1362
aS'/bbs/NTUfin03/index.html'
p1363
aS'/bbs/CS_Basket/index.html'
p1364
aS'/bbs/b96902HW/index.html'
p1365
aS'/bbs/B98305XXX/index.html'
p1366
aS'/bbs/NCCU_LING93/index.html'
p1367
aS'/bbs/NCCU00_PA/index.html'
p1368
aS'/bbs/NTUmicro_95/index.html'
p1369
aS'/bbs/NTUCE-104/index.html'
p1370
aS'/bbs/Epi-98/index.html'
p1371
aS'/bbs/NCCU_PA/index.html'
p1372
aS'/bbs/PH-93/index.html'
p1373
aS'/bbs/NCCU12_DIP/index.html'
p1374
aS'/bbs/NCCU02_JAPAN/index.html'
p1375
aS'/bbs/NTUH_PGY/index.html'
p1376
aS'/bbs/LandBaseball/index.html'
p1377
aS'/bbs/NCCU04_LawFl/index.html'
p1378
aS'/bbs/PoliReview/index.html'
p1379
aS'/bbs/NCCU02_SOCI/index.html'
p1380
aS'/bbs/NCCU_electro/index.html'
p1381
aS'/bbs/CompLiter/index.html'
p1382
aS'/bbs/NCCU_CHI_TCH/index.html'
p1383
aS'/bbs/NCCU_ComLaw/index.html'
p1384
aS'/bbs/NCCU_NeiHu/index.html'
p1385
aS'/bbs/NCCU11_GBANK/index.html'
p1386
aS'/bbs/NCCU06_SOCIO/index.html'
p1387
aS'/bbs/ENG_WBASKET/index.html'
p1388
aS'/bbs/NCCU02_MJOUR/index.html'
p1389
aS'/bbs/VET_94/index.html'
p1390
aS'/bbs/b934060XX/index.html'
p1391
aS'/bbs/R923220PA/index.html'
p1392
aS'/bbs/BioChem_97/index.html'
p1393
aS'/bbs/NCCU_Kunqu/index.html'
p1394
aS'/bbs/PA_GBasket/index.html'
p1395
aS'/bbs/B863052XX/index.html'
p1396
aS'/bbs/PT-94/index.html'
p1397
aS'/bbs/CSIE_Service/index.html'
p1398
aS'/bbs/NCCU08_TUR/index.html'
p1399
aS'/bbs/NTUMEB01/index.html'
p1400
aS'/bbs/VETtennis/index.html'
p1401
aS'/bbs/NTUfin00/index.html'
p1402
aS'/bbs/AGECR96/index.html'
p1403
aS'/bbs/NTUMath-Good/index.html'
p1404
aS'/bbs/NTUIBMB93/index.html'
p1405
aS'/bbs/CVEfootball/index.html'
p1406
aS'/bbs/MCBadminton/index.html'
p1407
aS'/bbs/NTUACCTR92/index.html'
p1408
aS'/bbs/NTUEE_LAB506/index.html'
p1409
aS'/bbs/NCCU06_Arab/index.html'
p1410
aS'/bbs/NTU99DFLL/index.html'
p1411
aS'/bbs/NCCUPSYstudy/index.html'
p1412
aS'/bbs/PH-86/index.html'
p1413
aS'/bbs/NTU06DFLL/index.html'
p1414
aS'/bbs/LifS_Service/index.html'
p1415
aS'/bbs/NTUEE100/index.html'
p1416
aS'/bbs/NCCU03_LawLt/index.html'
p1417
aS'/bbs/NCCU_CL-LIB/index.html'
p1418
aS'/bbs/NCCU09_PSYGR/index.html'
p1419
aS'/bbs/NTUMath100/index.html'
p1420
aS'/bbs/NTUMSE-100/index.html'
p1421
aS'/bbs/NCCU09_Ghis/index.html'
p1422
aS'/bbs/Philo-12/index.html'
p1423
aS'/bbs/B951010XX/index.html'
p1424
aS'/bbs/NCCU07_AT-B/index.html'
p1425
aS'/bbs/NCCU06_GIDS/index.html'
p1426
aS'/bbs/PF_Culture/index.html'
p1427
aS'/bbs/NTUCH-100/index.html'
p1428
aS'/bbs/NCCU12_Stat/index.html'
p1429
aS'/bbs/NTU_ABC/index.html'
p1430
aS'/bbs/NTUCH-Badmin/index.html'
p1431
aS'/bbs/geography101/index.html'
p1432
aS'/bbs/NCCU06_Eco/index.html'
p1433
aS'/bbs/NTUmed85/index.html'
p1434
aS'/bbs/B01303XXX/index.html'
p1435
aS'/bbs/NTUfinGrad91/index.html'
p1436
aS'/bbs/NCCU08_STGRA/index.html'
p1437
aS'/bbs/NTUBSE-B-102/index.html'
p1438
aS'/bbs/NTUCH-107/index.html'
p1439
aS'/bbs/FreshCamp10/index.html'
p1440
aS'/bbs/NTUCE-90/index.html'
p1441
aS'/bbs/NTUMEB88-CHW/index.html'
p1442
aS'/bbs/NCCU04FMGRAD/index.html'
p1443
aS'/bbs/NTUdentSA/index.html'
p1444
aS'/bbs/NCCU06_MAT/index.html'
p1445
aS'/bbs/NTUot93/index.html'
p1446
aS'/bbs/NTUBIME-94/index.html'
p1447
aS'/bbs/NCCU00_Korea/index.html'
p1448
aS'/bbs/NTUAC96/index.html'
p1449
aS'/bbs/Law-Photo/index.html'
p1450
aS'/bbs/IBTT/index.html'
p1451
aS'/bbs/Philo-97/index.html'
p1452
aS'/bbs/NCCU07_PSYCH/index.html'
p1453
aS'/bbs/Po-pingpong/index.html'
p1454
aS'/bbs/NTU-Economic/index.html'
p1455
aS'/bbs/KickBoxing/index.html'
p1456
aS'/bbs/NTUfinGrad02/index.html'
p1457
aS'/bbs/BIOSTAT/index.html'
p1458
aS'/bbs/NTUCHEstball/index.html'
p1459
aS'/bbs/NTU-GIIBTeam/index.html'
p1460
aS'/bbs/CSIE_Archi/index.html'
p1461
aS'/bbs/NCCU_NDSH/index.html'
p1462
aS'/bbs/NCCU_CHKids/index.html'
p1463
aS'/bbs/NCCU98_PSYCH/index.html'
p1464
aS'/bbs/NCCU_MIXER/index.html'
p1465
aS'/bbs/NCCU07_BANK/index.html'
p1466
aS'/bbs/NCCU13_JAPAN/index.html'
p1467
aS'/bbs/NTUCSA/index.html'
p1468
aS'/bbs/R983220PT/index.html'
p1469
aS'/bbs/pa_pingpong/index.html'
p1470
aS'/bbs/B88205XXX/index.html'
p1471
aS'/bbs/NTUdent01/index.html'
p1472
aS'/bbs/NCCU00_AT-A/index.html'
p1473
aS'/bbs/CSCamp2001/index.html'
p1474
aS'/bbs/B991010XX/index.html'
p1475
aS'/bbs/NCCU07_PFGR/index.html'
p1476
aS'/bbs/NCCU05_MJOUR/index.html'
p1477
aS'/bbs/NTUGIPO_307A/index.html'
p1478
aS'/bbs/NCCU09_LawC/index.html'
p1479
aS'/bbs/NTUMath90/index.html'
p1480
aS'/bbs/NCCU08_Ghis/index.html'
p1481
aS'/bbs/Philo-SBT/index.html'
p1482
aS'/bbs/NTUHistory87/index.html'
p1483
aS'/bbs/NCCU11_BANK/index.html'
p1484
aS'/bbs/NCCU07_MJOUR/index.html'
p1485
aS'/bbs/Anthro06/index.html'
p1486
aS'/bbs/Povolleyball/index.html'
p1487
aS'/bbs/NTUPSE-98/index.html'
p1488
aS'/bbs/Philo-02/index.html'
p1489
aS'/bbs/NccuNetClub/index.html'
p1490
aS'/bbs/B94A011XX/index.html'
p1491
aS'/bbs/NCCU_TEA/index.html'
p1492
aS'/bbs/NCCU10_MJOUR/index.html'
p1493
aS'/bbs/NCCU11_Stat/index.html'
p1494
aS'/bbs/NCCU05_Eco/index.html'
p1495
aS'/bbs/NTUMT-88/index.html'
p1496
aS'/bbs/NCCU13_PFGR/index.html'
p1497
aS'/bbs/FINBilliard/index.html'
p1498
aS'/bbs/NCCU08_MBA/index.html'
p1499
aS'/bbs/NCCU_PubLaw/index.html'
p1500
aS'/bbs/NCCU_thanks/index.html'
p1501
aS'/bbs/NCCU13_CHI/index.html'
p1502
aS'/bbs/geography91/index.html'
p1503
aS'/bbs/NCCU99_PA/index.html'
p1504
aS'/bbs/STATBaseball/index.html'
p1505
aS'/bbs/NTUJapanSA/index.html'
p1506
aS'/bbs/NTUND97/index.html'
p1507
aS'/bbs/B931010XX/index.html'
p1508
aS'/bbs/NCCU09_LAND/index.html'
p1509
aS'/bbs/NCCU01_DIP/index.html'
p1510
aS'/bbs/phys98/index.html'
p1511
aS'/bbs/Anthro-R91/index.html'
p1512
aS'/bbs/NTUBIME-105/index.html'
p1513
aS'/bbs/NCCU09_PF/index.html'
p1514
aS'/bbs/NTUDormFJr/index.html'
p1515
aS'/bbs/NTUBP-R99/index.html'
p1516
aS'/bbs/NCCU_BL/index.html'
p1517
aS'/bbs/LawDebate/index.html'
p1518
aS'/bbs/Arab_Base/index.html'
p1519
aS'/bbs/NCCU02_FM/index.html'
p1520
aS'/bbs/Geotecheng99/index.html'
p1521
aS'/bbs/VET_103/index.html'
p1522
aS'/bbs/CH-Baseball/index.html'
p1523
aS'/bbs/NCCU04_Eng/index.html'
p1524
aS'/bbs/b964060XX/index.html'
p1525
aS'/bbs/AGEC94/index.html'
p1526
aS'/bbs/NTUfinDr96/index.html'
p1527
aS'/bbs/AT_BASKET/index.html'
p1528
aS'/bbs/NTUMEB90-A/index.html'
p1529
aS'/bbs/NTUMEB95/index.html'
p1530
aS'/bbs/NTUIM-20/index.html'
p1531
aS'/bbs/NTUIAM-326/index.html'
p1532
aS'/bbs/NCCU05_BANK/index.html'
p1533
aS'/bbs/b06902xxx/index.html'
p1534
aS'/bbs/Hydrotech98/index.html'
p1535
aS'/bbs/ChildService/index.html'
p1536
aS'/bbs/NTUMT-92/index.html'
p1537
aS'/bbs/NTUGEO95-HW/index.html'
p1538
aS'/bbs/CSCamp2005/index.html'
p1539
aS'/bbs/ESOE/index.html'
p1540
aS'/bbs/NTUEE107/index.html'
p1541
aS'/bbs/NTUMEB88-B/index.html'
p1542
aS'/bbs/NTUIAMGRA/index.html'
p1543
aS'/bbs/NCCU_TKD/index.html'
p1544
aS'/bbs/NCCU_PS_VB/index.html'
p1545
aS'/bbs/NTU-GIIB2004/index.html'
p1546
aS'/bbs/NTUAC93work/index.html'
p1547
aS'/bbs/NTUfinGrad01/index.html'
p1548
aS'/bbs/b914060work/index.html'
p1549
aS'/bbs/NTUMT-99/index.html'
p1550
aS'/bbs/NTUBA90/index.html'
p1551
aS'/bbs/NTUEE105/index.html'
p1552
aS'/bbs/DIP_LALA/index.html'
p1553
aS'/bbs/MIRAGE_LAB/index.html'
p1554
aS'/bbs/R97A21XXX/index.html'
p1555
aS'/bbs/LS_gbk/index.html'
p1556
aS'/bbs/NTUBST-R99/index.html'
p1557
aS'/bbs/NTUfinGrad03/index.html'
p1558
aS'/bbs/b92902xxx/index.html'
p1559
aS'/bbs/BST_SPORTS/index.html'
p1560
aS'/bbs/B00310XXX/index.html'
p1561
aS'/bbs/NTUEE107HW/index.html'
p1562
aS'/bbs/NCCU07_Arab/index.html'
p1563
aS'/bbs/Med_basket/index.html'
p1564
aS'/bbs/NCCU11_LAND/index.html'
p1565
aS'/bbs/phys97/index.html'
p1566
aS'/bbs/Agronomy-89/index.html'
p1567
aS'/bbs/NTUCHEbsball/index.html'
p1568
aS'/bbs/NCCU11_Korea/index.html'
p1569
aS'/bbs/NTUMEB87-C/index.html'
p1570
aS'/bbs/NTUMath99/index.html'
p1571
aS'/bbs/NTUIB99/index.html'
p1572
aS'/bbs/NTU92thLIS/index.html'
p1573
aS'/bbs/b04902xxx/index.html'
p1574
aS'/bbs/LandBadminto/index.html'
p1575
aS'/bbs/NTU-htbadmin/index.html'
p1576
aS'/bbs/Geotecheng97/index.html'
p1577
aS'/bbs/NTUOralBio97/index.html'
p1578
aS'/bbs/NTUBA95study/index.html'
p1579
aS'/bbs/NCCU11_LawC/index.html'
p1580
aS'/bbs/NTULCSA/index.html'
p1581
aS'/bbs/NTUba89/index.html'
p1582
aS'/bbs/NCCU09_MAD/index.html'
p1583
aS'/bbs/HolySee/index.html'
p1584
aS'/bbs/NCCU03_GRMI/index.html'
p1585
aS'/bbs/BioChemPhD94/index.html'
p1586
aS'/bbs/NCCU05_GID/index.html'
p1587
aS'/bbs/B88A012XX/index.html'
p1588
aS'/bbs/phys86/index.html'
p1589
aS'/bbs/PT-87/index.html'
p1590
aS'/bbs/NCCU01_MAT/index.html'
p1591
aS'/bbs/B981010XX/index.html'
p1592
aS'/bbs/NTUCESA/index.html'
p1593
aS'/bbs/NTUGIEE_AMTG/index.html'
p1594
aS'/bbs/NTU-HTsoftba/index.html'
p1595
aS'/bbs/CS_Badminton/index.html'
p1596
aS'/bbs/NTUphy95/index.html'
p1597
aS'/bbs/NCCU03_ETHNO/index.html'
p1598
aS'/bbs/LS_Badminton/index.html'
p1599
aS'/bbs/EEBilliard/index.html'
p1600
aS'/bbs/NCCUlawserve/index.html'
p1601
aS'/bbs/EE_DSnP/index.html'
p1602
aS'/bbs/NTU_IMMUNE98/index.html'
p1603
aS'/bbs/NTUACCTR95/index.html'
p1604
aS'/bbs/NCCU09_PA/index.html'
p1605
aS'/bbs/NCCU11_PFGR/index.html'
p1606
aS'/bbs/Psychology07/index.html'
p1607
aS'/bbs/LsVolleyBall/index.html'
p1608
aS'/bbs/NCCU10_AT_B/index.html'
p1609
aS'/bbs/NCCU97_MAT/index.html'
p1610
aS'/bbs/NCCU04_TUR/index.html'
p1611
aS'/bbs/NCCU07_Stat/index.html'
p1612
aS'/bbs/NTUCE-89/index.html'
p1613
aS'/bbs/NTUBST100/index.html'
p1614
aS'/bbs/NCCU06_DIP/index.html'
p1615
aS'/bbs/NTUmed98/index.html'
p1616
aS'/bbs/AT-Debate/index.html'
p1617
aS'/bbs/SocialSoccer/index.html'
p1618
aS'/bbs/R903230XX/index.html'
p1619
aS'/bbs/NCCU04_Arab/index.html'
p1620
aS'/bbs/NTUGIEE_RFIC/index.html'
p1621
aS'/bbs/NCCU03_LawFl/index.html'
p1622
aS'/bbs/NTUdenalumni/index.html'
p1623
aS'/bbs/NCCU96_AT-A/index.html'
p1624
aS'/bbs/PHI_Baseball/index.html'
p1625
aS'/bbs/NTUHistory99/index.html'
p1626
aS'/bbs/NTUCHE-02-HW/index.html'
p1627
aS'/bbs/Transport99/index.html'
p1628
aS'/bbs/Campus-plan/index.html'
p1629
aS'/bbs/Land_Chorus/index.html'
p1630
aS'/bbs/ESOE-92/index.html'
p1631
aS'/bbs/NTUGIPO_PNSL/index.html'
p1632
aS'/bbs/NTUACCTWork/index.html'
p1633
aS'/bbs/NCCU03_ITMBA/index.html'
p1634
aS'/bbs/NCCU_Photo/index.html'
p1635
aS'/bbs/B913023XX/index.html'
p1636
aS'/bbs/NTUPhiloSA/index.html'
p1637
aS'/bbs/NTUFM-91/index.html'
p1638
aS'/bbs/Slavics_VB/index.html'
p1639
aS'/bbs/NCCU04_TWHis/index.html'
p1640
aS'/bbs/NccuEco_BMT/index.html'
p1641
aS'/bbs/NTU05DFLL/index.html'
p1642
aS'/bbs/NCCU08_CHI/index.html'
p1643
aS'/bbs/NCCU03_Eco/index.html'
p1644
aS'/bbs/NTUCE-105/index.html'
p1645
aS'/bbs/ntuACCTeam/index.html'
p1646
aS'/bbs/NTUIB92/index.html'
p1647
aS'/bbs/phys87/index.html'
p1648
aS'/bbs/NTUIAM_BKT/index.html'
p1649
aS'/bbs/Soccer-Girl/index.html'
p1650
aS'/bbs/B94303XXX/index.html'
p1651
aS'/bbs/NTUAC-Badmin/index.html'
p1652
aS'/bbs/NTUEE-Lab530/index.html'
p1653
aS'/bbs/NCCU_JAPAN_G/index.html'
p1654
aS'/bbs/b00610xxx/index.html'
p1655
aS'/bbs/NCCU_Hualien/index.html'
p1656
aS'/bbs/NCCU04_Eco/index.html'
p1657
aS'/bbs/NTUHorti95/index.html'
p1658
aS'/bbs/NCCULabor94/index.html'
p1659
aS'/bbs/LifeSci_93/index.html'
p1660
aS'/bbs/CSIE_ICE/index.html'
p1661
aS'/bbs/NCCU_IVA/index.html'
p1662
aS'/bbs/CSCamp2006/index.html'
p1663
aS'/bbs/NTUFM-86/index.html'
p1664
aS'/bbs/NTUCE-88/index.html'
p1665
aS'/bbs/NTUBIME-93/index.html'
p1666
aS'/bbs/NCCU99_LawHa/index.html'
p1667
aS'/bbs/PT-100/index.html'
p1668
aS'/bbs/NCCU12_SOCI/index.html'
p1669
aS'/bbs/NTUCH-98/index.html'
p1670
aS'/bbs/NTULawR97/index.html'
p1671
aS'/bbs/AT_chorus/index.html'
p1672
aS'/bbs/b88610xxx/index.html'
p1673
aS'/bbs/NCCUPA_Baske/index.html'
p1674
aS'/bbs/NTUSXYFOOD/index.html'
p1675
aS'/bbs/NCCU06_PHILO/index.html'
p1676
aS'/bbs/NCCU12_AT_A/index.html'
p1677
aS'/bbs/NCCU04_EcoG/index.html'
p1678
aS'/bbs/NTUACVOLLEY/index.html'
p1679
aS'/bbs/Transport97/index.html'
p1680
aS'/bbs/NTUCL-TTS/index.html'
p1681
aS'/bbs/NTUCHE-97-HW/index.html'
p1682
aS'/bbs/NTULawR95/index.html'
p1683
aS'/bbs/PHY-service/index.html'
p1684
aS'/bbs/NCCU_ModeL/index.html'
p1685
aS'/bbs/R01A41XXX/index.html'
p1686
aS'/bbs/ntuACCT95/index.html'
p1687
aS'/bbs/NCCU11_ITMBA/index.html'
p1688
aS'/bbs/LS_xibao/index.html'
p1689
aS'/bbs/NTUPPM-96/index.html'
p1690
aS'/bbs/NTUFS-89/index.html'
p1691
aS'/bbs/NTUMBA-92/index.html'
p1692
aS'/bbs/INSECT-92/index.html'
p1693
aS'/bbs/NCCU10_BANK/index.html'
p1694
aS'/bbs/Med-soccer/index.html'
p1695
aS'/bbs/B87305XXX/index.html'
p1696
aS'/bbs/Social-2B/index.html'
p1697
aS'/bbs/MABADMINTON/index.html'
p1698
aS'/bbs/INSECT-95/index.html'
p1699
aS'/bbs/MSEping-pong/index.html'
p1700
aS'/bbs/SocialTeam/index.html'
p1701
aS'/bbs/NCCU07_GIDS/index.html'
p1702
aS'/bbs/NTUIM-14/index.html'
p1703
aS'/bbs/B853011XX/index.html'
p1704
aS'/bbs/EDU_WB/index.html'
p1705
aS'/bbs/Philosophy/index.html'
p1706
aS'/bbs/NTUHistory00/index.html'
p1707
aS'/bbs/NCCU03_STGRA/index.html'
p1708
aS'/bbs/Philo-study/index.html'
p1709
aS'/bbs/Arb_volley/index.html'
p1710
aS'/bbs/INSECT-98/index.html'
p1711
aS'/bbs/EconTennis/index.html'
p1712
aS'/bbs/NTUCH-89/index.html'
p1713
aS'/bbs/NTUFS-92/index.html'
p1714
aS'/bbs/NCCU06_MAD/index.html'
p1715
aS'/bbs/NTUND100/index.html'
p1716
aS'/bbs/RockandMetal/index.html'
p1717
aS'/bbs/Ethnos_TT/index.html'
p1718
aS'/bbs/NTU-GIIB2011/index.html'
p1719
aS'/bbs/PSY-BSKT/index.html'
p1720
aS'/bbs/NTUMEB90-C/index.html'
p1721
aS'/bbs/NTU-HCOA97/index.html'
p1722
aS'/bbs/NCCU04_Korea/index.html'
p1723
aS'/bbs/NCCU99_BA/index.html'
p1724
aS'/bbs/NCCU09_AT-B/index.html'
p1725
aS'/bbs/NTU-IEH99/index.html'
p1726
aS'/bbs/B001010XX/index.html'
p1727
aS'/bbs/CLSMB-R98/index.html'
p1728
aS'/bbs/Soci_Volley/index.html'
p1729
aS'/bbs/NTUBSE/index.html'
p1730
aS'/bbs/NCCU03_FM/index.html'
p1731
aS'/bbs/NCCU_BasketB/index.html'
p1732
aS'/bbs/NTUHistory04/index.html'
p1733
aS'/bbs/NCCU02_BA/index.html'
p1734
aS'/bbs/NTUHistory95/index.html'
p1735
aS'/bbs/NCCU_EBS/index.html'
p1736
aS'/bbs/NCCU98_Histo/index.html'
p1737
aS'/bbs/NCCU_puppet/index.html'
p1738
aS'/bbs/NTUMEB90-HW/index.html'
p1739
aS'/bbs/NCCU07_BA/index.html'
p1740
aS'/bbs/NTU-MSA/index.html'
p1741
aS'/bbs/NCCU02_AD/index.html'
p1742
aS'/bbs/NTUdent92/index.html'
p1743
aS'/bbs/NCCU07_LING/index.html'
p1744
aS'/bbs/R973220PA/index.html'
p1745
aS'/bbs/NTU_Service/index.html'
p1746
aS'/bbs/IBBadminton/index.html'
p1747
aS'/bbs/NTUmed02/index.html'
p1748
aS'/bbs/b99902HW/index.html'
p1749
aS'/bbs/NCCU_GB70/index.html'
p1750
aS'/bbs/NTUEE108HW/index.html'
p1751
aS'/bbs/NTUfin95/index.html'
p1752
aS'/bbs/NTU-GIIB2012/index.html'
p1753
aS'/bbs/NCCU02_LawHa/index.html'
p1754
aS'/bbs/B943022XX/index.html'
p1755
aS'/bbs/B921010XX/index.html'
p1756
aS'/bbs/Med93_Conote/index.html'
p1757
aS'/bbs/Agronomy-84/index.html'
p1758
aS'/bbs/NTUCH-BRIDGE/index.html'
p1759
aS'/bbs/B963022XX/index.html'
p1760
aS'/bbs/CSIEgraduate/index.html'
p1761
aS'/bbs/NTUBEBI_96/index.html'
p1762
aS'/bbs/NCCU01_ETHNO/index.html'
p1763
aS'/bbs/AT_FootBall/index.html'
p1764
aS'/bbs/BioChem_98/index.html'
p1765
aS'/bbs/Journalism96/index.html'
p1766
aS'/bbs/civil92/index.html'
p1767
aS'/bbs/NTU_NICEBOY/index.html'
p1768
aS'/bbs/NTUND92/index.html'
p1769
aS'/bbs/NTUBA91-1/index.html'
p1770
aS'/bbs/R98A41XXX/index.html'
p1771
aS'/bbs/NCCU02_LawLt/index.html'
p1772
aS'/bbs/NCCU98_SOCI/index.html'
p1773
aS'/bbs/b96610xxx/index.html'
p1774
aS'/bbs/med543/index.html'
p1775
aS'/bbs/NTUMath-bad/index.html'
p1776
aS'/bbs/NTUot99/index.html'
p1777
aS'/bbs/NCCU06_EA/index.html'
p1778
aS'/bbs/EthnosSport/index.html'
p1779
aS'/bbs/b92610xxx/index.html'
p1780
aS'/bbs/NCCUESC/index.html'
p1781
aS'/bbs/NCCU_EDUGRAD/index.html'
p1782
aS'/bbs/B00A012XX/index.html'
p1783
aS'/bbs/NTUdent03/index.html'
p1784
aS'/bbs/NTUSC/index.html'
p1785
aS'/bbs/NTUR991230XX/index.html'
p1786
aS'/bbs/Agronomy-87/index.html'
p1787
aS'/bbs/PF_Soccer/index.html'
p1788
aS'/bbs/NTUBSE-B-101/index.html'
p1789
aS'/bbs/ChiBadminton/index.html'
p1790
aS'/bbs/NCCUECO_LALA/index.html'
p1791
aS'/bbs/NCCU_Arab/index.html'
p1792
aS'/bbs/NTUACCTR102/index.html'
p1793
aS'/bbs/EconVolley/index.html'
p1794
aS'/bbs/NCCU04_Stat/index.html'
p1795
aS'/bbs/b01902HW/index.html'
p1796
aS'/bbs/R96A41XXX/index.html'
p1797
aS'/bbs/B961010XX/index.html'
p1798
aS'/bbs/NCCU04_LawHa/index.html'
p1799
aS'/bbs/NCCU03_Arab/index.html'
p1800
aS'/bbs/B863023XX/index.html'
p1801
aS'/bbs/OT-softball/index.html'
p1802
aS'/bbs/NTUOralBio95/index.html'
p1803
aS'/bbs/NCCU09_LANDG/index.html'
p1804
aS'/bbs/NtuDormM5/index.html'
p1805
aS'/bbs/AGEC-TEAMS/index.html'
p1806
aS'/bbs/NTUBA00study/index.html'
p1807
aS'/bbs/NTUDrama98/index.html'
p1808
aS'/bbs/NTUR971230XX/index.html'
p1809
aS'/bbs/NTUHorti88/index.html'
p1810
aS'/bbs/b94902xxx/index.html'
p1811
aS'/bbs/b98902xxx/index.html'
p1812
aS'/bbs/NTU-GIIB2001/index.html'
p1813
aS'/bbs/ME_BADMINTON/index.html'
p1814
aS'/bbs/NTUEE_LAB206/index.html'
p1815
aS'/bbs/AT_F_Basket/index.html'
p1816
aS'/bbs/NCCUEcoSport/index.html'
p1817
aS'/bbs/BOTANY_91/index.html'
p1818
aS'/bbs/NCCU_Ballet/index.html'
p1819
aS'/bbs/B013022XX/index.html'
p1820
aS'/bbs/NCCU_CCSH/index.html'
p1821
aS'/bbs/NCCU12_EcoG/index.html'
p1822
aS'/bbs/NCCU03_RU/index.html'
p1823
aS'/bbs/NCCU_JUDO/index.html'
p1824
aS'/bbs/B983022XX/index.html'
p1825
aS'/bbs/Med_softball/index.html'
p1826
aS'/bbs/PSY_Baseball/index.html'
p1827
aS'/bbs/NCCU07_CHIS/index.html'
p1828
aS'/bbs/NCCUHISLIB/index.html'
p1829
aS'/bbs/NTUEOE_R306A/index.html'
p1830
aS'/bbs/LawBadminton/index.html'
p1831
aS'/bbs/Med_baseball/index.html'
p1832
aS'/bbs/Structure99/index.html'
p1833
aS'/bbs/NTUACCTR101/index.html'
p1834
aS'/bbs/b032040XX/index.html'
p1835
aS'/bbs/NCCU_CHESS/index.html'
p1836
aS'/bbs/NCCU_chiayun/index.html'
p1837
aS'/bbs/AGECR97/index.html'
p1838
aS'/bbs/CivilLittle/index.html'
p1839
aS'/bbs/NCCU09_TWHis/index.html'
p1840
aS'/bbs/PT-Consult/index.html'
p1841
aS'/bbs/NCCU99_ETHNO/index.html'
p1842
aS'/bbs/NTUACT_04/index.html'
p1843
aS'/bbs/NCCU01_PS/index.html'
p1844
aS'/bbs/NTUAC92/index.html'
p1845
aS'/bbs/CSCouncil/index.html'
p1846
aS'/bbs/Arabicgirls/index.html'
p1847
aS'/bbs/NTU-EM94/index.html'
p1848
aS'/bbs/NCCU_hkmac/index.html'
p1849
aS'/bbs/NTUIE92/index.html'
p1850
aS'/bbs/PH-87/index.html'
p1851
aS'/bbs/NCCU_TWopera/index.html'
p1852
aS'/bbs/NCCU_TCSL_97/index.html'
p1853
aS'/bbs/NTUDFLL-MA97/index.html'
p1854
aS'/bbs/NTUFS-91/index.html'
p1855
aS'/bbs/NCCU07_STGRA/index.html'
p1856
aS'/bbs/NTUF-95/index.html'
p1857
aS'/bbs/NTUDFLL-BT/index.html'
p1858
aS'/bbs/NTUAC97/index.html'
p1859
aS'/bbs/NCCU_STAT_VB/index.html'
p1860
aS'/bbs/B90A012XX/index.html'
p1861
aS'/bbs/NCCU_PSY_SA/index.html'
p1862
aS'/bbs/NTUPP-91/index.html'
p1863
aS'/bbs/NTUfin93/index.html'
p1864
aS'/bbs/NTUIB05/index.html'
p1865
aS'/bbs/Math_Basket/index.html'
p1866
aS'/bbs/NCCU07_SOCI/index.html'
p1867
aS'/bbs/NTU98DFLL/index.html'
p1868
aS'/bbs/SocialPinPon/index.html'
p1869
aS'/bbs/NTUIAM-94/index.html'
p1870
aS'/bbs/B873023XX/index.html'
p1871
aS'/bbs/B01A011XX/index.html'
p1872
aS'/bbs/NCCU06_TUR/index.html'
p1873
aS'/bbs/CH-Football/index.html'
p1874
aS'/bbs/NTU-GIIB2002/index.html'
p1875
aS'/bbs/B96310XXX/index.html'
p1876
aS'/bbs/CCOBCHEER/index.html'
p1877
aS'/bbs/NTUFSOFT/index.html'
p1878
aS'/bbs/NCCU07_TWHis/index.html'
p1879
aS'/bbs/NCCU00_Stat/index.html'
p1880
aS'/bbs/PSY-VBT/index.html'
p1881
aS'/bbs/NtuDormF9/index.html'
p1882
aS'/bbs/NTU-IEH94/index.html'
p1883
aS'/bbs/NTUEE_VAL/index.html'
p1884
aS'/bbs/NTUHistory86/index.html'
p1885
aS'/bbs/PT-93/index.html'
p1886
aS'/bbs/NTUCH-CAMP/index.html'
p1887
aS'/bbs/NCCU11_AT-B/index.html'
p1888
aS'/bbs/NTUACCTR90/index.html'
p1889
aS'/bbs/VET_102/index.html'
p1890
aS'/bbs/NCCU97_Arab/index.html'
p1891
aS'/bbs/NTUBIME103HW/index.html'
p1892
aS'/bbs/ntuACCT03/index.html'
p1893
aS'/bbs/NCCU00_PF/index.html'
p1894
aS'/bbs/NTUAGEC84/index.html'
p1895
aS'/bbs/NTUIB93/index.html'
p1896
aS'/bbs/ESOE-97/index.html'
p1897
aS'/bbs/INSECT-90/index.html'
p1898
aS'/bbs/NCCU_HCML/index.html'
p1899
aS'/bbs/R973230XX/index.html'
p1900
aS'/bbs/NTUBSE-B-98/index.html'
p1901
aS'/bbs/NCCU09_DIP/index.html'
p1902
aS'/bbs/NTUEngSA/index.html'
p1903
aS'/bbs/NCCU09_Stat/index.html'
p1904
aS'/bbs/NCCU10_ITMBA/index.html'
p1905
aS'/bbs/MSEbowling/index.html'
p1906
aS'/bbs/NTUEE106/index.html'
p1907
aS'/bbs/NCCU07_SW/index.html'
p1908
aS'/bbs/NTUMEB02/index.html'
p1909
aS'/bbs/NCCU96_AT-B/index.html'
p1910
aS'/bbs/GermanGarden/index.html'
p1911
aS'/bbs/R001210XX/index.html'
p1912
aS'/bbs/NCCU_JESSUP/index.html'
p1913
aS'/bbs/NCCU_hakka/index.html'
p1914
aS'/bbs/NCCU_BMT/index.html'
p1915
aS'/bbs/NTUBIME-103/index.html'
p1916
aS'/bbs/NCCU09_Eco/index.html'
p1917
aS'/bbs/NCCU09_JAPAN/index.html'
p1918
aS'/bbs/NCCU01_TUR/index.html'
p1919
aS'/bbs/NCCU05_LawHa/index.html'
p1920
aS'/bbs/NCCU05_SOCI/index.html'
p1921
aS'/bbs/NCCU07_RMI/index.html'
p1922
aS'/bbs/NTUIB96/index.html'
p1923
aS'/bbs/OPT-GBasket/index.html'
p1924
aS'/bbs/b02902HW/index.html'
p1925
aS'/bbs/PT-Brain/index.html'
p1926
aS'/bbs/Law-Volley/index.html'
p1927
aS'/bbs/NTUMT-96/index.html'
p1928
aS'/bbs/NTUHistory89/index.html'
p1929
aS'/bbs/NCCU09PAGARD/index.html'
p1930
aS'/bbs/B97A013XX/index.html'
p1931
aS'/bbs/NCCU_Strings/index.html'
p1932
aS'/bbs/NTUCH-101/index.html'
p1933
aS'/bbs/NTUHorti94/index.html'
p1934
aS'/bbs/NCCU08_AT-A/index.html'
p1935
aS'/bbs/NTUMBA-98/index.html'
p1936
aS'/bbs/CSIE_ASM/index.html'
p1937
aS'/bbs/B85303xxx/index.html'
p1938
aS'/bbs/NtuHisBasket/index.html'
p1939
aS'/bbs/SocS_Service/index.html'
p1940
aS'/bbs/NTUBA99study/index.html'
p1941
aS'/bbs/NTUCHE-03-HW/index.html'
p1942
aS'/bbs/NTUIB89/index.html'
p1943
aS'/bbs/NCCU07_PF/index.html'
p1944
aS'/bbs/NCCU04_Eng_G/index.html'
p1945
aS'/bbs/NCCU06_ITMBA/index.html'
p1946
aS'/bbs/NTUOralBio96/index.html'
p1947
aS'/bbs/NTUCH-HW/index.html'
p1948
aS'/bbs/NCCU08_BA/index.html'
p1949
aS'/bbs/NCCULabor96/index.html'
p1950
aS'/bbs/NCCU03_AT-A/index.html'
p1951
aS'/bbs/NTUmed92/index.html'
p1952
aS'/bbs/NCCU03_AT-B/index.html'
p1953
aS'/bbs/NTUF-02/index.html'
p1954
aS'/bbs/AGECservice/index.html'
p1955
aS'/bbs/R991210XX/index.html'
p1956
aS'/bbs/FinSwim/index.html'
p1957
aS'/bbs/NTUMSE-92/index.html'
p1958
aS'/bbs/LAND_Club/index.html'
p1959
aS'/bbs/AGEC93/index.html'
p1960
aS'/bbs/B87205XXX/index.html'
p1961
aS'/bbs/ME-Billiard/index.html'
p1962
aS'/bbs/LifeSci_100/index.html'
p1963
aS'/bbs/NCCU11_PHILO/index.html'
p1964
aS'/bbs/NTULISR96/index.html'
p1965
aS'/bbs/Philo-team/index.html'
p1966
aS'/bbs/NTUF-93/index.html'
p1967
aS'/bbs/NCCUfilmlove/index.html'
p1968
aS'/bbs/NTUMEB87-B/index.html'
p1969
aS'/bbs/NTU-EM93/index.html'
p1970
aS'/bbs/NCCU06_LawFl/index.html'
p1971
aS'/bbs/NTUOCBio92/index.html'
p1972
aS'/bbs/NCCU08_BANK/index.html'
p1973
aS'/bbs/NTUdrama01/index.html'
p1974
aS'/bbs/NTUfin89/index.html'
p1975
aS'/bbs/NTUBSE-B-93/index.html'
p1976
aS'/bbs/Philo-11/index.html'
p1977
aS'/bbs/Anthropretty/index.html'
p1978
aS'/bbs/NTUIM-07/index.html'
p1979
aS'/bbs/Criminal_law/index.html'
p1980
aS'/bbs/GIEE102/index.html'
p1981
aS'/bbs/Agronomy-98/index.html'
p1982
aS'/bbs/NTUMath101/index.html'
p1983
aS'/bbs/VET/index.html'
p1984
aS'/bbs/CSIE_Network/index.html'
p1985
aS'/bbs/NTUHorti96/index.html'
p1986
aS'/bbs/NCCU_Info/index.html'
p1987
aS'/bbs/NTUDrama89/index.html'
p1988
aS'/bbs/NTU96thLIS/index.html'
p1989
aS'/bbs/NCCU98_AT-A/index.html'
p1990
aS'/bbs/AGEC-soft/index.html'
p1991
aS'/bbs/LawPingPong/index.html'
p1992
aS'/bbs/NTUIB03/index.html'
p1993
aS'/bbs/NTU_orthoses/index.html'
p1994
aS'/bbs/HisBadminton/index.html'
p1995
aS'/bbs/NCCU_STAT/index.html'
p1996
aS'/bbs/NTUIE94/index.html'
p1997
aS'/bbs/ZooSoftball/index.html'
p1998
aS'/bbs/NTUMSE-101/index.html'
p1999
aS'/bbs/ResourceRoom/index.html'
p2000
aS'/bbs/NCCU04_STGRA/index.html'
p2001
aS'/bbs/AGEC87/index.html'
p2002
aS'/bbs/NTUNANO/index.html'
p2003
aS'/bbs/NTUfin99/index.html'
p2004
aS'/bbs/NTUF-CLUB/index.html'
p2005
aS'/bbs/NCCU05_Korea/index.html'
p2006
aS'/bbs/BAfootball/index.html'
p2007
aS'/bbs/NTUCE-106/index.html'
p2008
aS'/bbs/LawBasketGir/index.html'
p2009
aS'/bbs/NTUEE103/index.html'
p2010
aS'/bbs/B86303XXX/index.html'
p2011
aS'/bbs/NTUFBADMINTO/index.html'
p2012
aS'/bbs/NTUIB00/index.html'
p2013
aS'/bbs/NCCU06_ETHNO/index.html'
p2014
aS'/bbs/Agro-soft/index.html'
p2015
aS'/bbs/NCCU99_FM/index.html'
p2016
aS'/bbs/Eng_PingPong/index.html'
p2017
aS'/bbs/NCCU_TESOL/index.html'
p2018
aS'/bbs/NCCU_PSY_VB/index.html'
p2019
aS'/bbs/b08902xxx/index.html'
p2020
aS'/bbs/NCCU09_LawA/index.html'
p2021
aS'/bbs/NTUCE-102/index.html'
p2022
aS'/bbs/ESOE-102/index.html'
p2023
aS'/bbs/Agronomy-99/index.html'
p2024
aS'/bbs/PH-97/index.html'
p2025
aS'/bbs/NCCU_MSDS/index.html'
p2026
aS'/bbs/NTUMEB92-A/index.html'
p2027
aS'/bbs/B93305XXX/index.html'
p2028
aS'/bbs/NTUBA-887011/index.html'
p2029
aS'/bbs/NTUFS-97/index.html'
p2030
aS'/bbs/NCCU03_PA/index.html'
p2031
aS'/bbs/NCCU08_PF/index.html'
p2032
aS'/bbs/Anthro08/index.html'
p2033
aS'/bbs/NCCU_MAB-NBA/index.html'
p2034
aS'/bbs/LawOBBasebal/index.html'
p2035
aS'/bbs/GIEE_99/index.html'
p2036
aS'/bbs/NTUJapan96/index.html'
p2037
aS'/bbs/NTUBA04/index.html'
p2038
aS'/bbs/NTUJapan-BT/index.html'
p2039
aS'/bbs/Agro-volley/index.html'
p2040
aS'/bbs/BioChem_91/index.html'
p2041
aS'/bbs/PT-92/index.html'
p2042
aS'/bbs/PA_Badminton/index.html'
p2043
aS'/bbs/LifeSci_98/index.html'
p2044
aS'/bbs/NCCU08_EA/index.html'
p2045
aS'/bbs/EthnosBasket/index.html'
p2046
aS'/bbs/vetbasket/index.html'
p2047
aS'/bbs/NCCU09-IIP/index.html'
p2048
aS'/bbs/AGEC86/index.html'
p2049
aS'/bbs/ntuACCT96/index.html'
p2050
aS'/bbs/NCCU11_BA/index.html'
p2051
aS'/bbs/NTUBA96/index.html'
p2052
aS'/bbs/NCCU_Datong/index.html'
p2053
aS'/bbs/NCCU07_Eco/index.html'
p2054
aS'/bbs/NTUfinGrad04/index.html'
p2055
aS'/bbs/b022040XX/index.html'
p2056
aS'/bbs/geography100/index.html'
p2057
aS'/bbs/NTUot86/index.html'
p2058
aS'/bbs/B97305XXX/index.html'
p2059
aS'/bbs/arb_pingpong/index.html'
p2060
aS'/bbs/NTUMT-02/index.html'
p2061
aS'/bbs/NCCU08_DIP/index.html'
p2062
aS'/bbs/B93A011XX/index.html'
p2063
aS'/bbs/NCCU08_GRMI/index.html'
p2064
aS'/bbs/NTU08DFLL/index.html'
p2065
aS'/bbs/CSIECUP/index.html'
p2066
aS'/bbs/NCCU11_EcoG/index.html'
p2067
aS'/bbs/PF_Badminton/index.html'
p2068
aS'/bbs/yangboy/index.html'
p2069
aS'/bbs/CSIE_TTENNIS/index.html'
p2070
aS'/bbs/B92310XXX/index.html'
p2071
aS'/bbs/NTUMEB91-B/index.html'
p2072
aS'/bbs/NCCUKAVALAN/index.html'
p2073
aS'/bbs/NCCU_FunLaw/index.html'
p2074
aS'/bbs/NCCUWuLing/index.html'
p2075
aS'/bbs/B863021XX/index.html'
p2076
aS'/bbs/NCCU04_LAND/index.html'
p2077
aS'/bbs/NCCU04_SOCIO/index.html'
p2078
aS'/bbs/ESOEBaseball/index.html'
p2079
aS'/bbs/NTUAC-club/index.html'
p2080
aS'/bbs/NTUND-SBF/index.html'
p2081
aS'/bbs/Law-Affairs/index.html'
p2082
aS'/bbs/SOCI_YAGYU/index.html'
p2083
aS'/bbs/gender-TIE/index.html'
p2084
aS'/bbs/LifeSci_96/index.html'
p2085
aS'/bbs/NTUmed95/index.html'
p2086
aS'/bbs/NTUMT-91work/index.html'
p2087
aS'/bbs/NTUBST102/index.html'
p2088
aS'/bbs/NTUeducation/index.html'
p2089
aS'/bbs/NCCU07_JAPAN/index.html'
p2090
aS'/bbs/NTUCM95g/index.html'
p2091
aS'/bbs/b94902HW/index.html'
p2092
aS'/bbs/R983220IR/index.html'
p2093
aS'/bbs/Philo-08/index.html'
p2094
aS'/bbs/NtuDormM4/index.html'
p2095
aS'/bbs/Agro-sport/index.html'
p2096
aS'/bbs/NTUEE101/index.html'
p2097
aS'/bbs/NTUGIEER329/index.html'
p2098
aS'/bbs/SocialScup/index.html'
p2099
aS'/bbs/NTUGEO_study/index.html'
p2100
aS'/bbs/CSCamp2004/index.html'
p2101
aS'/bbs/NTUGIEE_EDA/index.html'
p2102
aS'/bbs/b842040xx/index.html'
p2103
aS'/bbs/NCCU01_RMI/index.html'
p2104
aS'/bbs/COUR_Service/index.html'
p2105
aS'/bbs/NCCU09_STGRA/index.html'
p2106
aS'/bbs/NTUMEB94-B/index.html'
p2107
aS'/bbs/NCCU_Art/index.html'
p2108
aS'/bbs/NTUAC93/index.html'
p2109
aS'/bbs/NCCU06_Korea/index.html'
p2110
aS'/bbs/NTUdent95/index.html'
p2111
aS'/bbs/NTUCH-103/index.html'
p2112
aS'/bbs/NTU/index.html'
p2113
aS'/bbs/NTUDormM6/index.html'
p2114
aS'/bbs/NTUDrama90/index.html'
p2115
aS'/bbs/AGEC88/index.html'
p2116
aS'/bbs/NCCU10_GIDS/index.html'
p2117
aS'/bbs/VET_96/index.html'
p2118
aS'/bbs/NCCU02_Korea/index.html'
p2119
aS'/bbs/B93303XXX/index.html'
p2120
aS'/bbs/civil91/index.html'
p2121
aS'/bbs/UFO/index.html'
p2122
aS'/bbs/NCCU97_LAWLt/index.html'
p2123
aS'/bbs/NCCUECO_TT/index.html'
p2124
aS'/bbs/NCCU06_MBA/index.html'
p2125
aS'/bbs/NCCU11_JAPAN/index.html'
p2126
aS'/bbs/NCCU04_EA/index.html'
p2127
aS'/bbs/NCCU10_RMI/index.html'
p2128
aS'/bbs/NCCU06_GID/index.html'
p2129
aS'/bbs/civil95/index.html'
p2130
aS'/bbs/R873230XX/index.html'
p2131
aS'/bbs/CVEbadminton/index.html'
p2132
aS'/bbs/DIP_VOLLEY/index.html'
p2133
aS'/bbs/NTUMEB93-C/index.html'
p2134
aS'/bbs/NCCU01_SOCI/index.html'
p2135
aS'/bbs/NTUBST96/index.html'
p2136
aS'/bbs/Table_Tennis/index.html'
p2137
aS'/bbs/NCCU06_AT-B/index.html'
p2138
aS'/bbs/NCCU10_GID/index.html'
p2139
aS'/bbs/NTUMESA/index.html'
p2140
aS'/bbs/NCCU01_PHILO/index.html'
p2141
aS'/bbs/b02902xxx/index.html'
p2142
aS'/bbs/Chinese_TT/index.html'
p2143
aS'/bbs/csiegeneral/index.html'
p2144
aS'/bbs/R983220PA/index.html'
p2145
aS'/bbs/Econ-PHD/index.html'
p2146
aS'/bbs/ArabicBasket/index.html'
p2147
aS'/bbs/NCCU12_JAPAN/index.html'
p2148
aS'/bbs/INSECT-94/index.html'
p2149
aS'/bbs/NTULISvolley/index.html'
p2150
aS'/bbs/IAM_Aero007/index.html'
p2151
aS'/bbs/Philo-98/index.html'
p2152
aS'/bbs/NTUMEB98/index.html'
p2153
aS'/bbs/geography105/index.html'
p2154
aS'/bbs/PT-BB/index.html'
p2155
aS'/bbs/NTUHorti93/index.html'
p2156
aS'/bbs/NCCU02_PSYCH/index.html'
p2157
aS'/bbs/GIDT/index.html'
p2158
aS'/bbs/B013023XX/index.html'
p2159
aS'/bbs/NCCU08_Ethno/index.html'
p2160
aS'/bbs/NCCU_SignLan/index.html'
p2161
aS'/bbs/LS_swim/index.html'
p2162
aS'/bbs/NCCU99_MBA/index.html'
p2163
aS'/bbs/NTUIM-10/index.html'
p2164
aS'/bbs/ESOE-Basket/index.html'
p2165
aS'/bbs/NCCU07_ETHNO/index.html'
p2166
aS'/bbs/Transport98/index.html'
p2167
aS'/bbs/NCCU10_MAT/index.html'
p2168
aS'/bbs/NCCU04_PHILO/index.html'
p2169
aS'/bbs/EEBasketball/index.html'
p2170
aS'/bbs/NTUot101/index.html'
p2171
aS'/bbs/PHYact/index.html'
p2172
aS'/bbs/NCCU_SEED/index.html'
p2173
aS'/bbs/INSECT/index.html'
p2174
aS'/bbs/NTUdentBASKT/index.html'
p2175
aS'/bbs/ESOE-91/index.html'
p2176
aS'/bbs/BOTANY_89/index.html'
p2177
aS'/bbs/NTUDrama95/index.html'
p2178
aS'/bbs/NCCU00_AT-B/index.html'
p2179
aS'/bbs/AGEC91/index.html'
p2180
aS'/bbs/NTU_Hate/index.html'
p2181
aS'/bbs/NCCU_ESCRIME/index.html'
p2182
aS'/bbs/NCCU06_AT-A/index.html'
p2183
aS'/bbs/b982040XX/index.html'
p2184
aS'/bbs/NCCU03_IT/index.html'
p2185
aS'/bbs/NTUMEB91-A/index.html'
p2186
aS'/bbs/b00902xxx/index.html'
p2187
aS'/bbs/b992040XX/index.html'
p2188
aS'/bbs/NTUmedphoto/index.html'
p2189
aS'/bbs/NTUMT-97/index.html'
p2190
aS'/bbs/R863230XX/index.html'
p2191
aS'/bbs/Philo-07/index.html'
p2192
aS'/bbs/B873013XX/index.html'
p2193
aS'/bbs/Psy_Tennis/index.html'
p2194
aS'/bbs/NCCU03_JAPAN/index.html'
p2195
aS'/bbs/NCCU_TwLit/index.html'
p2196
aS'/bbs/NTUPPM-01/index.html'
p2197
aS'/bbs/LAND_LALA/index.html'
p2198
aS'/bbs/B901010XX/index.html'
p2199
aS'/bbs/NCCU-ILI/index.html'
p2200
aS'/bbs/NTU-EM92/index.html'
p2201
aS'/bbs/DIP_Baseball/index.html'
p2202
aS'/bbs/NTUHORTI100/index.html'
p2203
aS'/bbs/NTUGCLSU/index.html'
p2204
aS'/bbs/NTUmed97/index.html'
p2205
aS'/bbs/NTUR981230XX/index.html'
p2206
aS'/bbs/LifeSci_94/index.html'
p2207
aS'/bbs/NCCULabor93/index.html'
p2208
aS'/bbs/NTUmed94/index.html'
p2209
aS'/bbs/CSIE_TENNIS/index.html'
p2210
aS'/bbs/LifeSci_97/index.html'
p2211
aS'/bbs/AGECR95/index.html'
p2212
aS'/bbs/PSY-Tennis/index.html'
p2213
aS'/bbs/Orientalism/index.html'
p2214
aS'/bbs/NCCU00_MAT/index.html'
p2215
aS'/bbs/Philo-10/index.html'
p2216
aS'/bbs/NCCU03_PSYGR/index.html'
p2217
aS'/bbs/NTUFTENNIS/index.html'
p2218
aS'/bbs/NTUEE110HW/index.html'
p2219
aS'/bbs/NCCU10PAGARD/index.html'
p2220
aS'/bbs/DIP_Academic/index.html'
p2221
aS'/bbs/NCCU11_PF/index.html'
p2222
aS'/bbs/EEBaseball/index.html'
p2223
aS'/bbs/NCCU10_LAND/index.html'
p2224
aS'/bbs/CLSMB-R97/index.html'
p2225
aS'/bbs/PT-101/index.html'
p2226
aS'/bbs/MartialArt/index.html'
p2227
aS'/bbs/NCCU05_HISTO/index.html'
p2228
aS'/bbs/NTUND90/index.html'
p2229
aS'/bbs/NCCU09_GIDS/index.html'
p2230
aS'/bbs/civil89/index.html'
p2231
aS'/bbs/NCCU_TIM99/index.html'
p2232
aS'/bbs/NTUMSE-97/index.html'
p2233
aS'/bbs/AGEC101/index.html'
p2234
aS'/bbs/NTUBSE-B-97/index.html'
p2235
aS'/bbs/BEPAD/index.html'
p2236
aS'/bbs/NCCUTrueLove/index.html'
p2237
aS'/bbs/NCCU07_Euro/index.html'
p2238
aS'/bbs/NTUIM-17/index.html'
p2239
aS'/bbs/NCCU98_FM/index.html'
p2240
aS'/bbs/NTUBA98study/index.html'
p2241
aS'/bbs/NCCU10_CHIS/index.html'
p2242
aS'/bbs/NCCU03_RTV/index.html'
p2243
aS'/bbs/NTUAC86/index.html'
p2244
aS'/bbs/NCCU12_PA/index.html'
p2245
aS'/bbs/B863051XX/index.html'
p2246
aS'/bbs/NTUND96/index.html'
p2247
aS'/bbs/PHILO_CHORUS/index.html'
p2248
aS'/bbs/b93902HW/index.html'
p2249
aS'/bbs/NCCU10_TUR/index.html'
p2250
aS'/bbs/BOTANY_90/index.html'
p2251
aS'/bbs/Hydrotech97/index.html'
p2252
aS'/bbs/ADDD_Service/index.html'
p2253
aS'/bbs/AD_NCCU_VB/index.html'
p2254
aS'/bbs/NTUDFLL-MVBT/index.html'
p2255
aS'/bbs/NTUACCT-PHD/index.html'
p2256
aS'/bbs/Likihon_LAB/index.html'
p2257
aS'/bbs/NCCU01_Eco/index.html'
p2258
aS'/bbs/NCCU98_Arab/index.html'
p2259
aS'/bbs/NCCU99_BANK/index.html'
p2260
aS'/bbs/NtuDormF2/index.html'
p2261
aS'/bbs/NCCU_JAP/index.html'
p2262
aS'/bbs/NTU-GIIB2003/index.html'
p2263
aS'/bbs/NTUAC95/index.html'
p2264
aS'/bbs/NTUEE_Speech/index.html'
p2265
aS'/bbs/VET_99/index.html'
p2266
aS'/bbs/NTU_SSWSA/index.html'
p2267
aS'/bbs/NTUCH-97/index.html'
p2268
aS'/bbs/NTUEE_Lab554/index.html'
p2269
aS'/bbs/NTUMEB93-HW/index.html'
p2270
aS'/bbs/NTUACcamp/index.html'
p2271
aS'/bbs/NTUfinGrad93/index.html'
p2272
aS'/bbs/NCCU05_Arab/index.html'
p2273
aS'/bbs/pharm-party/index.html'
p2274
aS'/bbs/NCCU10_GBANK/index.html'
p2275
aS'/bbs/NCCU01_JAPAN/index.html'
p2276
aS'/bbs/NCCU04_PSYCH/index.html'
p2277
aS'/bbs/NCCUEuro_PA/index.html'
p2278
aS'/bbs/MED_Service/index.html'
p2279
aS'/bbs/NCCU02_Eng/index.html'
p2280
aS'/bbs/NCCU99_RMI/index.html'
p2281
aS'/bbs/NCCU_sk8ers/index.html'
p2282
aS'/bbs/NCCU12_HISTO/index.html'
p2283
aS'/bbs/NCCUArtCraft/index.html'
p2284
aS'/bbs/NTUDormF4/index.html'
p2285
aS'/bbs/NTUMBA-93/index.html'
p2286
aS'/bbs/NTUMT-98/index.html'
p2287
aS'/bbs/R93325XXX/index.html'
p2288
aS'/bbs/NCCU10_STGRA/index.html'
p2289
aS'/bbs/NCCU98_PHILO/index.html'
p2290
aS'/bbs/R92325xxx/index.html'
p2291
aS'/bbs/NTU-GIIB2005/index.html'
p2292
aS'/bbs/NCCU03_Korea/index.html'
p2293
aS'/bbs/NTUDramaSA/index.html'
p2294
aS'/bbs/NTUfin92/index.html'
p2295
aS'/bbs/b89902xxx/index.html'
p2296
aS'/bbs/NCCU09_PFGR/index.html'
p2297
aS'/bbs/NTUDFLL-EWC/index.html'
p2298
aS'/bbs/NCCU06_TWHis/index.html'
p2299
aS'/bbs/NCCU_TL98/index.html'
p2300
aS'/bbs/Psychology97/index.html'
p2301
aS'/bbs/NCCU_CL_VB/index.html'
p2302
aS'/bbs/NTU_Newboard/index.html'
p2303
aS'/bbs/NCCU_CriLaw/index.html'
p2304
aS'/bbs/NCCU06_Eng/index.html'
p2305
aS'/bbs/B971010XX/index.html'
p2306
aS'/bbs/HisSoccer/index.html'
p2307
aS'/bbs/PT-97/index.html'
p2308
aS'/bbs/PH-service/index.html'
p2309
aS'/bbs/NCCU09_EcoG/index.html'
p2310
aS'/bbs/NCCU07_PSYGR/index.html'
p2311
aS'/bbs/NTUmed90/index.html'
p2312
aS'/bbs/IMICS/index.html'
p2313
aS'/bbs/geography99/index.html'
p2314
aS'/bbs/NCCU99_Korea/index.html'
p2315
aS'/bbs/NCCU_ETP/index.html'
p2316
aS'/bbs/NTUCHETennis/index.html'
p2317
aS'/bbs/NTUfin02/index.html'
p2318
aS'/bbs/PSYBadminton/index.html'
p2319
aS'/bbs/NCCU11_LawA/index.html'
p2320
aS'/bbs/ESOE-Volley/index.html'
p2321
aS'/bbs/CivilTT/index.html'
p2322
aS'/bbs/NCCU08_LawC/index.html'
p2323
aS'/bbs/NCCU00_LAND/index.html'
p2324
aS'/bbs/NCCU_PILOT/index.html'
p2325
aS'/bbs/NTUIM-18/index.html'
p2326
aS'/bbs/Structure/index.html'
p2327
aS'/bbs/NCCU07_EcoD/index.html'
p2328
aS'/bbs/NCCU07_Math/index.html'
p2329
aS'/bbs/ZooStudy/index.html'
p2330
aS'/bbs/CSIE_WSLAB/index.html'
p2331
aS'/bbs/NTUACenter/index.html'
p2332
aS'/bbs/b862040xx/index.html'
p2333
aS'/bbs/NTUBST101/index.html'
p2334
aS'/bbs/NTUot92/index.html'
p2335
aS'/bbs/b902040XX/index.html'
p2336
aS'/bbs/NTUdent89/index.html'
p2337
aS'/bbs/NTU_BOTDorm2/index.html'
p2338
aS'/bbs/NTU-HTbasket/index.html'
p2339
aS'/bbs/NTUIB02/index.html'
p2340
aS'/bbs/NTUMBA-Bad/index.html'
p2341
aS'/bbs/civil98/index.html'
p2342
aS'/bbs/NTUCEGbasket/index.html'
p2343
aS'/bbs/NCCU04_CHI/index.html'
p2344
aS'/bbs/NTUMT-91/index.html'
p2345
aS'/bbs/NCCU98_RMI/index.html'
p2346
aS'/bbs/NCCU10_DIP/index.html'
p2347
aS'/bbs/Law_Baseball/index.html'
p2348
aS'/bbs/DFLLBadmintn/index.html'
p2349
aS'/bbs/NTUPPM-92/index.html'
p2350
aS'/bbs/phys00/index.html'
p2351
aS'/bbs/NTUCL-BASKET/index.html'
p2352
aS'/bbs/Agronomy-95/index.html'
p2353
aS'/bbs/NTUMEB92-B/index.html'
p2354
aS'/bbs/NTUPP-86/index.html'
p2355
aS'/bbs/NCCU98_ITS/index.html'
p2356
aS'/bbs/NTUPhiloGI/index.html'
p2357
aS'/bbs/NCCU09_Arab/index.html'
p2358
aS'/bbs/B983023XX/index.html'
p2359
aS'/bbs/NCCU_TVBS/index.html'
p2360
aS'/bbs/b96902xxx/index.html'
p2361
aS'/bbs/B871010XX/index.html'
p2362
aS'/bbs/NTUHistory90/index.html'
p2363
aS'/bbs/NCCU00_ETHNO/index.html'
p2364
aS'/bbs/NTUND93/index.html'
p2365
aS'/bbs/NTUEE111/index.html'
p2366
aS'/bbs/NCCU05_MBA/index.html'
p2367
aS'/bbs/NTUIB90/index.html'
p2368
aS'/bbs/NTUFM-89/index.html'
p2369
aS'/bbs/ntuACCT05/index.html'
p2370
aS'/bbs/NTUmed00/index.html'
p2371
aS'/bbs/NCCURPH/index.html'
p2372
aS'/bbs/FinanceTop/index.html'
p2373
aS'/bbs/NCCU06_CHI/index.html'
p2374
aS'/bbs/NCCU02_LawFl/index.html'
p2375
aS'/bbs/Philo-00/index.html'
p2376
aS'/bbs/NCCU11_SOCI/index.html'
p2377
aS'/bbs/b952040XX/index.html'
p2378
aS'/bbs/NCCU05_LawLt/index.html'
p2379
aS'/bbs/NTUCH-96/index.html'
p2380
aS'/bbs/PSY_STUDY/index.html'
p2381
aS'/bbs/phys95/index.html'
p2382
aS'/bbs/NCCU07_ITMBA/index.html'
p2383
aS'/bbs/NTUBIME_ALL/index.html'
p2384
aS'/bbs/NCCU_GRADUAT/index.html'
p2385
aS'/bbs/B011010XX/index.html'
p2386
aS'/bbs/NCCU98_AT-B/index.html'
p2387
aS'/bbs/NTU104thLIS/index.html'
p2388
aS'/bbs/b885060xx/index.html'
p2389
aS'/bbs/NTU_IMMUNE92/index.html'
p2390
aS'/bbs/NCCU98_JAPAN/index.html'
p2391
aS'/bbs/INSECT-89/index.html'
p2392
aS'/bbs/CSCamp2011/index.html'
p2393
aS'/bbs/NCCU01_BANK/index.html'
p2394
aS'/bbs/Soci_Badmint/index.html'
p2395
aS'/bbs/NTUot91/index.html'
p2396
aS'/bbs/NTUCH-105/index.html'
p2397
aS'/bbs/NTU95thLIS/index.html'
p2398
aS'/bbs/R933220PA/index.html'
p2399
aS'/bbs/NTUEEControl/index.html'
p2400
aS'/bbs/NTUFRC87/index.html'
p2401
aS'/bbs/NCCU_Astro/index.html'
p2402
aS'/bbs/BA_baseball/index.html'
p2403
aS'/bbs/NCCU00_SOCI/index.html'
p2404
aS'/bbs/NTUfinGrad90/index.html'
p2405
aS'/bbs/NTUBST97/index.html'
p2406
aS'/bbs/B92A011XX/index.html'
p2407
aS'/bbs/ESOE-90/index.html'
p2408
aS'/bbs/ENG_BASE/index.html'
p2409
aS'/bbs/NCCU01_Korea/index.html'
p2410
aS'/bbs/NCCU12_TUR/index.html'
p2411
aS'/bbs/NCCU_GROOVY/index.html'
p2412
aS'/bbs/vetvolley/index.html'
p2413
aS'/bbs/NTUfinGrad00/index.html'
p2414
aS'/bbs/Billiardball/index.html'
p2415
aS'/bbs/NCCU99_PIKA/index.html'
p2416
aS'/bbs/NCCU08_SOCIO/index.html'
p2417
aS'/bbs/NCCU_BD/index.html'
p2418
aS'/bbs/NTUMath98/index.html'
p2419
aS'/bbs/NCCU05_AT-A/index.html'
p2420
aS'/bbs/NCCU98_BANK/index.html'
p2421
aS'/bbs/CSIECourse/index.html'
p2422
aS'/bbs/NCCU98_PS/index.html'
p2423
aS'/bbs/PH-90/index.html'
p2424
aS'/bbs/NTUPPM/index.html'
p2425
aS'/bbs/CH-PINGPONG/index.html'
p2426
aS'/bbs/NTUOCGeo/index.html'
p2427
aS'/bbs/ME-PingPong/index.html'
p2428
aS'/bbs/NCCU10_HISTO/index.html'
p2429
aS'/bbs/Psychology05/index.html'
p2430
aS'/bbs/NTUMath93/index.html'
p2431
aS'/bbs/NCCU03_Eng/index.html'
p2432
aS'/bbs/MayClass/index.html'
p2433
aS'/bbs/AGECcourse/index.html'
p2434
aS'/bbs/PHI_G_Basket/index.html'
p2435
aS'/bbs/ESOE-95/index.html'
p2436
aS'/bbs/NCCU09_RMI/index.html'
p2437
aS'/bbs/NCCUflamenco/index.html'
p2438
aS'/bbs/NCCU02_Stat/index.html'
p2439
aS'/bbs/NCCU02_AT-A/index.html'
p2440
aS'/bbs/B883021xx/index.html'
p2441
aS'/bbs/PangSir/index.html'
p2442
aS'/bbs/NCCU_DIP_TT/index.html'
p2443
aS'/bbs/NtuDormM3/index.html'
p2444
aS'/bbs/CSCamp2012/index.html'
p2445
aS'/bbs/NCCU_FL/index.html'
p2446
aS'/bbs/NCCU08_CHIS/index.html'
p2447
aS'/bbs/DiscreteMath/index.html'
p2448
aS'/bbs/B89305xxx/index.html'
p2449
aS'/bbs/b94610xxx/index.html'
p2450
aS'/bbs/B96A013XX/index.html'
p2451
aS'/bbs/R963300XX/index.html'
p2452
aS'/bbs/NTUfin05/index.html'
p2453
aS'/bbs/Philo-05/index.html'
p2454
aS'/bbs/NCCU98_LawLt/index.html'
p2455
aS'/bbs/NTUF-96/index.html'
p2456
aS'/bbs/HIS_Basket/index.html'
p2457
aS'/bbs/NCCU09_CHI/index.html'
p2458
aS'/bbs/Psy-heart/index.html'
p2459
aS'/bbs/NTUF-98/index.html'
p2460
aS'/bbs/ntuACCT08/index.html'
p2461
aS'/bbs/NCCU04_RTV/index.html'
p2462
aS'/bbs/ESOE-99/index.html'
p2463
aS'/bbs/NCCU01_Stat/index.html'
p2464
aS'/bbs/NCCU09_Math/index.html'
p2465
aS'/bbs/NCCU_AT/index.html'
p2466
aS'/bbs/NCCU05_SOCIO/index.html'
p2467
aS'/bbs/NCCU08_PSYGR/index.html'
p2468
aS'/bbs/NTUot94/index.html'
p2469
aS'/bbs/CSIEACT/index.html'
p2470
aS'/bbs/B95310XXX/index.html'
p2471
aS'/bbs/BioChemPhD95/index.html'
p2472
aS'/bbs/ACMCLUB/index.html'
p2473
aS'/bbs/NTUMSE90pass/index.html'
p2474
aS'/bbs/B911010XX/index.html'
p2475
aS'/bbs/NTUCE-96/index.html'
p2476
aS'/bbs/NTUBIME-99/index.html'
p2477
aS'/bbs/NCCU_CivLaw/index.html'
p2478
aS'/bbs/NTUot97/index.html'
p2479
aS'/bbs/PF_Cheer/index.html'
p2480
aS'/bbs/R943220PA/index.html'
p2481
aS'/bbs/NTUdent91/index.html'
p2482
aS'/bbs/Agr-Football/index.html'
p2483
aS'/bbs/NTUAC99/index.html'
p2484
aS'/bbs/EEBoardgame/index.html'
p2485
aS'/bbs/NCCU/index.html'
p2486
aS'/bbs/NCCU08_Eco/index.html'
p2487
aS'/bbs/b984060XX/index.html'
p2488
aS'/bbs/Arb_Chorus/index.html'
p2489
aS'/bbs/NTUIM-lckung/index.html'
p2490
aS'/bbs/NCCU_MinFu/index.html'
p2491
aS'/bbs/NTUDFLL-MA99/index.html'
p2492
aS'/bbs/NTUmicro_93/index.html'
p2493
aS'/bbs/R963220IR/index.html'
p2494
aS'/bbs/PH-89/index.html'
p2495
aS'/bbs/NCCU06_LawLt/index.html'
p2496
aS'/bbs/NTUBA01study/index.html'
p2497
aS'/bbs/NCCUbike/index.html'
p2498
aS'/bbs/CheerLeading/index.html'
p2499
aS'/bbs/NTUmed99/index.html'
p2500
aS'/bbs/NCCU08_MJOUR/index.html'
p2501
aS'/bbs/NCCU98_Eco/index.html'
p2502
aS'/bbs/ESOE-101/index.html'
p2503
aS'/bbs/Psychology96/index.html'
p2504
aS'/bbs/civil87/index.html'
p2505
aS'/bbs/NCCU_AT-LIB/index.html'
p2506
aS'/bbs/NTUHI/index.html'
p2507
aS'/bbs/NCCU06-TESOL/index.html'
p2508
aS'/bbs/NCCU05_PHILO/index.html'
p2509
aS'/bbs/NTUIBMB99/index.html'
p2510
aS'/bbs/NCCU06_BANK/index.html'
p2511
aS'/bbs/NCCU_HSBT/index.html'
p2512
aS'/bbs/R983230XX/index.html'
p2513
aS'/bbs/Psychology04/index.html'
p2514
aS'/bbs/NCCU_SeedsOL/index.html'
p2515
aS'/bbs/Geotecheng94/index.html'
p2516
aS'/bbs/ESOE-TENNIS/index.html'
p2517
aS'/bbs/NTUJapan05/index.html'
p2518
aS'/bbs/NatureSeeker/index.html'
p2519
aS'/bbs/B95A013XX/index.html'
p2520
aS'/bbs/NTUBA93/index.html'
p2521
aS'/bbs/NCCU04_BANK/index.html'
p2522
aS'/bbs/HistoryStudy/index.html'
p2523
aS'/bbs/BST_gBASKET/index.html'
p2524
aS'/bbs/NTUACCTR97/index.html'
p2525
aS'/bbs/R00A41XXX/index.html'
p2526
aS'/bbs/NCCU98_LawFl/index.html'
p2527
aS'/bbs/NTUMath95/index.html'
p2528
aS'/bbs/Rmi_Billiard/index.html'
p2529
aS'/bbs/phys96/index.html'
p2530
aS'/bbs/NTUAC87/index.html'
p2531
aS'/bbs/NTU105thLIS/index.html'
p2532
aS'/bbs/R981210XX/index.html'
p2533
aS'/bbs/NCCU09_AT-A/index.html'
p2534
aS'/bbs/Psychology98/index.html'
p2535
aS'/bbs/NCCU10_PFGR/index.html'
p2536
aS'/bbs/NTUIE99/index.html'
p2537
aS'/bbs/NTUdentPPAB/index.html'
p2538
aS'/bbs/NTUEESOCCER/index.html'
p2539
aS'/bbs/NCCU09_EA/index.html'
p2540
aS'/bbs/NTUCH-SPORT/index.html'
p2541
aS'/bbs/NCCUITMBAtim/index.html'
p2542
aS'/bbs/GIEE_95/index.html'
p2543
aS'/bbs/NCCU05PAGRAD/index.html'
p2544
aS'/bbs/EngBadminton/index.html'
p2545
aS'/bbs/NTUBIME96-HW/index.html'
p2546
aS'/bbs/b86610xxx/index.html'
p2547
aS'/bbs/ICDESIGN/index.html'
p2548
atp2549
Rp2550
.